
victim_match:     file format elf64-littleaarch64


Disassembly of section .init:

00000000000008b8 <_init>:
_init():
 8b8:	d503201f 	nop
 8bc:	a9bf7bfd 	stp	x29, x30, [sp, #-16]!
 8c0:	910003fd 	mov	x29, sp
 8c4:	9400005c 	bl	a34 <call_weak_fn>
 8c8:	a8c17bfd 	ldp	x29, x30, [sp], #16
 8cc:	d65f03c0 	ret

Disassembly of section .plt:

00000000000008d0 <.plt>:
 8d0:	a9bf7bf0 	stp	x16, x30, [sp, #-16]!
 8d4:	d0000010 	adrp	x16, 2000 <__FRAME_END__+0x1050>
 8d8:	f947aa11 	ldr	x17, [x16, #3920]
 8dc:	913d4210 	add	x16, x16, #0xf50
 8e0:	d61f0220 	br	x17
 8e4:	d503201f 	nop
 8e8:	d503201f 	nop
 8ec:	d503201f 	nop

00000000000008f0 <exit@plt>:
 8f0:	d0000010 	adrp	x16, 2000 <__FRAME_END__+0x1050>
 8f4:	f947ae11 	ldr	x17, [x16, #3928]
 8f8:	913d6210 	add	x16, x16, #0xf58
 8fc:	d61f0220 	br	x17

0000000000000900 <__libc_start_main@plt>:
 900:	d0000010 	adrp	x16, 2000 <__FRAME_END__+0x1050>
 904:	f947b211 	ldr	x17, [x16, #3936]
 908:	913d8210 	add	x16, x16, #0xf60
 90c:	d61f0220 	br	x17

0000000000000910 <perror@plt>:
 910:	d0000010 	adrp	x16, 2000 <__FRAME_END__+0x1050>
 914:	f947b611 	ldr	x17, [x16, #3944]
 918:	913da210 	add	x16, x16, #0xf68
 91c:	d61f0220 	br	x17

0000000000000920 <__cxa_finalize@plt>:
 920:	d0000010 	adrp	x16, 2000 <__FRAME_END__+0x1050>
 924:	f947ba11 	ldr	x17, [x16, #3952]
 928:	913dc210 	add	x16, x16, #0xf70
 92c:	d61f0220 	br	x17

0000000000000930 <open@plt>:
 930:	d0000010 	adrp	x16, 2000 <__FRAME_END__+0x1050>
 934:	f947be11 	ldr	x17, [x16, #3960]
 938:	913de210 	add	x16, x16, #0xf78
 93c:	d61f0220 	br	x17

0000000000000940 <__stack_chk_fail@plt>:
 940:	d0000010 	adrp	x16, 2000 <__FRAME_END__+0x1050>
 944:	f947c211 	ldr	x17, [x16, #3968]
 948:	913e0210 	add	x16, x16, #0xf80
 94c:	d61f0220 	br	x17

0000000000000950 <close@plt>:
 950:	d0000010 	adrp	x16, 2000 <__FRAME_END__+0x1050>
 954:	f947c611 	ldr	x17, [x16, #3976]
 958:	913e2210 	add	x16, x16, #0xf88
 95c:	d61f0220 	br	x17

0000000000000960 <__gmon_start__@plt>:
 960:	d0000010 	adrp	x16, 2000 <__FRAME_END__+0x1050>
 964:	f947ca11 	ldr	x17, [x16, #3984]
 968:	913e4210 	add	x16, x16, #0xf90
 96c:	d61f0220 	br	x17

0000000000000970 <abort@plt>:
 970:	d0000010 	adrp	x16, 2000 <__FRAME_END__+0x1050>
 974:	f947ce11 	ldr	x17, [x16, #3992]
 978:	913e6210 	add	x16, x16, #0xf98
 97c:	d61f0220 	br	x17

0000000000000980 <puts@plt>:
 980:	d0000010 	adrp	x16, 2000 <__FRAME_END__+0x1050>
 984:	f947d211 	ldr	x17, [x16, #4000]
 988:	913e8210 	add	x16, x16, #0xfa0
 98c:	d61f0220 	br	x17

0000000000000990 <mmap@plt>:
 990:	d0000010 	adrp	x16, 2000 <__FRAME_END__+0x1050>
 994:	f947d611 	ldr	x17, [x16, #4008]
 998:	913ea210 	add	x16, x16, #0xfa8
 99c:	d61f0220 	br	x17

00000000000009a0 <pread@plt>:
 9a0:	d0000010 	adrp	x16, 2000 <__FRAME_END__+0x1050>
 9a4:	f947da11 	ldr	x17, [x16, #4016]
 9a8:	913ec210 	add	x16, x16, #0xfb0
 9ac:	d61f0220 	br	x17

00000000000009b0 <munmap@plt>:
 9b0:	d0000010 	adrp	x16, 2000 <__FRAME_END__+0x1050>
 9b4:	f947de11 	ldr	x17, [x16, #4024]
 9b8:	913ee210 	add	x16, x16, #0xfb8
 9bc:	d61f0220 	br	x17

00000000000009c0 <printf@plt>:
 9c0:	d0000010 	adrp	x16, 2000 <__FRAME_END__+0x1050>
 9c4:	f947e211 	ldr	x17, [x16, #4032]
 9c8:	913f0210 	add	x16, x16, #0xfc0
 9cc:	d61f0220 	br	x17

Disassembly of section .text:

0000000000000a00 <_start>:
_start():
 a00:	d503201f 	nop
 a04:	d280001d 	mov	x29, #0x0                   	// #0
 a08:	d280001e 	mov	x30, #0x0                   	// #0
 a0c:	aa0003e5 	mov	x5, x0
 a10:	f94003e1 	ldr	x1, [sp]
 a14:	910023e2 	add	x2, sp, #0x8
 a18:	910003e6 	mov	x6, sp
 a1c:	d0000000 	adrp	x0, 2000 <__FRAME_END__+0x1050>
 a20:	f947f800 	ldr	x0, [x0, #4080]
 a24:	d2800003 	mov	x3, #0x0                   	// #0
 a28:	d2800004 	mov	x4, #0x0                   	// #0
 a2c:	97ffffb5 	bl	900 <__libc_start_main@plt>
 a30:	97ffffd0 	bl	970 <abort@plt>

0000000000000a34 <call_weak_fn>:
call_weak_fn():
 a34:	d0000000 	adrp	x0, 2000 <__FRAME_END__+0x1050>
 a38:	f947f000 	ldr	x0, [x0, #4064]
 a3c:	b4000040 	cbz	x0, a44 <call_weak_fn+0x10>
 a40:	17ffffc8 	b	960 <__gmon_start__@plt>
 a44:	d65f03c0 	ret

0000000000000a48 <deregister_tm_clones>:
deregister_tm_clones():
 a48:	f0000000 	adrp	x0, 3000 <__data_start>
 a4c:	91004000 	add	x0, x0, #0x10
 a50:	f0000001 	adrp	x1, 3000 <__data_start>
 a54:	91004021 	add	x1, x1, #0x10
 a58:	eb00003f 	cmp	x1, x0
 a5c:	540000c0 	b.eq	a74 <deregister_tm_clones+0x2c>  // b.none
 a60:	d0000001 	adrp	x1, 2000 <__FRAME_END__+0x1050>
 a64:	f947e821 	ldr	x1, [x1, #4048]
 a68:	b4000061 	cbz	x1, a74 <deregister_tm_clones+0x2c>
 a6c:	aa0103f0 	mov	x16, x1
 a70:	d61f0200 	br	x16
 a74:	d65f03c0 	ret

0000000000000a78 <register_tm_clones>:
register_tm_clones():
 a78:	f0000000 	adrp	x0, 3000 <__data_start>
 a7c:	91004000 	add	x0, x0, #0x10
 a80:	f0000001 	adrp	x1, 3000 <__data_start>
 a84:	91004021 	add	x1, x1, #0x10
 a88:	cb000021 	sub	x1, x1, x0
 a8c:	d2800042 	mov	x2, #0x2                   	// #2
 a90:	9343fc21 	asr	x1, x1, #3
 a94:	9ac20c21 	sdiv	x1, x1, x2
 a98:	b40000c1 	cbz	x1, ab0 <register_tm_clones+0x38>
 a9c:	d0000002 	adrp	x2, 2000 <__FRAME_END__+0x1050>
 aa0:	f947fc42 	ldr	x2, [x2, #4088]
 aa4:	b4000062 	cbz	x2, ab0 <register_tm_clones+0x38>
 aa8:	aa0203f0 	mov	x16, x2
 aac:	d61f0200 	br	x16
 ab0:	d65f03c0 	ret

0000000000000ab4 <__do_global_dtors_aux>:
__do_global_dtors_aux():
 ab4:	a9be7bfd 	stp	x29, x30, [sp, #-32]!
 ab8:	910003fd 	mov	x29, sp
 abc:	f9000bf3 	str	x19, [sp, #16]
 ac0:	f0000013 	adrp	x19, 3000 <__data_start>
 ac4:	39404260 	ldrb	w0, [x19, #16]
 ac8:	35000140 	cbnz	w0, af0 <__do_global_dtors_aux+0x3c>
 acc:	d0000000 	adrp	x0, 2000 <__FRAME_END__+0x1050>
 ad0:	f947ec00 	ldr	x0, [x0, #4056]
 ad4:	b4000080 	cbz	x0, ae4 <__do_global_dtors_aux+0x30>
 ad8:	f0000000 	adrp	x0, 3000 <__data_start>
 adc:	f9400400 	ldr	x0, [x0, #8]
 ae0:	97ffff90 	bl	920 <__cxa_finalize@plt>
 ae4:	97ffffd9 	bl	a48 <deregister_tm_clones>
 ae8:	52800020 	mov	w0, #0x1                   	// #1
 aec:	39004260 	strb	w0, [x19, #16]
 af0:	f9400bf3 	ldr	x19, [sp, #16]
 af4:	a8c27bfd 	ldp	x29, x30, [sp], #32
 af8:	d65f03c0 	ret

0000000000000afc <frame_dummy>:
frame_dummy():
 afc:	17ffffdf 	b	a78 <register_tm_clones>

0000000000000b00 <main>:
main():
 b00:	a9bd7bfd 	stp	x29, x30, [sp, #-48]!
 b04:	910003fd 	mov	x29, sp
 b08:	b90013ff 	str	wzr, [sp, #16]
 b0c:	52800140 	mov	w0, #0xa                   	// #10
 b10:	b9001be0 	str	w0, [sp, #24]
 b14:	b9001fff 	str	wzr, [sp, #28]
 b18:	52a80000 	mov	w0, #0x40000000            	// #1073741824
 b1c:	b90023e0 	str	w0, [sp, #32]
 b20:	52820041 	mov	w1, #0x1002                	// #4098
 b24:	72a00201 	movk	w1, #0x10, lsl #16
 b28:	90000000 	adrp	x0, 0 <__abi_tag-0x254>
 b2c:	91368000 	add	x0, x0, #0xda0
 b30:	97ffff80 	bl	930 <open@plt>
 b34:	b90027e0 	str	w0, [sp, #36]
 b38:	b94027e0 	ldr	w0, [sp, #36]
 b3c:	3100041f 	cmn	w0, #0x1
 b40:	540000c1 	b.ne	b58 <main+0x58>  // b.any
 b44:	90000000 	adrp	x0, 0 <__abi_tag-0x254>
 b48:	9136c000 	add	x0, x0, #0xdb0
 b4c:	97ffff71 	bl	910 <perror@plt>
 b50:	52800020 	mov	w0, #0x1                   	// #1
 b54:	97ffff67 	bl	8f0 <exit@plt>
 b58:	b94023e0 	ldr	w0, [sp, #32]
 b5c:	aa0003e5 	mov	x5, x0
 b60:	b94027e4 	ldr	w4, [sp, #36]
 b64:	52800023 	mov	w3, #0x1                   	// #1
 b68:	52800062 	mov	w2, #0x3                   	// #3
 b6c:	d2820001 	mov	x1, #0x1000                	// #4096
 b70:	d2800000 	mov	x0, #0x0                   	// #0
 b74:	97ffff87 	bl	990 <mmap@plt>
 b78:	f90017e0 	str	x0, [sp, #40]
 b7c:	f94017e0 	ldr	x0, [sp, #40]
 b80:	b100041f 	cmn	x0, #0x1
 b84:	54000101 	b.ne	ba4 <main+0xa4>  // b.any
 b88:	90000000 	adrp	x0, 0 <__abi_tag-0x254>
 b8c:	91372000 	add	x0, x0, #0xdc8
 b90:	97ffff60 	bl	910 <perror@plt>
 b94:	b94027e0 	ldr	w0, [sp, #36]
 b98:	97ffff6e 	bl	950 <close@plt>
 b9c:	52800020 	mov	w0, #0x1                   	// #1
 ba0:	97ffff54 	bl	8f0 <exit@plt>
 ba4:	90000000 	adrp	x0, 0 <__abi_tag-0x254>
 ba8:	91376000 	add	x0, x0, #0xdd8
 bac:	97ffff75 	bl	980 <puts@plt>
 bb0:	b90017ff 	str	wzr, [sp, #20]
 bb4:	14000007 	b	bd0 <main+0xd0>
 bb8:	b94013e0 	ldr	w0, [sp, #16]
 bbc:	11000800 	add	w0, w0, #0x2
 bc0:	b90013e0 	str	w0, [sp, #16]
 bc4:	b94017e0 	ldr	w0, [sp, #20]
 bc8:	11000400 	add	w0, w0, #0x1
 bcc:	b90017e0 	str	w0, [sp, #20]
 bd0:	b94017e1 	ldr	w1, [sp, #20]
 bd4:	b9401be0 	ldr	w0, [sp, #24]
 bd8:	6b00003f 	cmp	w1, w0
 bdc:	54fffeeb 	b.lt	bb8 <main+0xb8>  // b.tstop
 be0:	b9401be2 	ldr	w2, [sp, #24]
 be4:	b94013e1 	ldr	w1, [sp, #16]
 be8:	90000000 	adrp	x0, 0 <__abi_tag-0x254>
 bec:	91378000 	add	x0, x0, #0xde0
 bf0:	97ffff74 	bl	9c0 <printf@plt>
 bf4:	f94017e0 	ldr	x0, [sp, #40]
 bf8:	b9400000 	ldr	w0, [x0]
 bfc:	2a0003e1 	mov	w1, w0
 c00:	90000000 	adrp	x0, 0 <__abi_tag-0x254>
 c04:	91382000 	add	x0, x0, #0xe08
 c08:	97ffff6e 	bl	9c0 <printf@plt>
 c0c:	f94017e0 	ldr	x0, [sp, #40]
 c10:	5297dde1 	mov	w1, #0xbeef                	// #48879
 c14:	72bbd5a1 	movk	w1, #0xdead, lsl #16
 c18:	b9000001 	str	w1, [x0]
 c1c:	90000000 	adrp	x0, 0 <__abi_tag-0x254>
 c20:	912c0000 	add	x0, x0, #0xb00
 c24:	94000044 	bl	d34 <getPhysicalAddress>
 c28:	d2820001 	mov	x1, #0x1000                	// #4096
 c2c:	f94017e0 	ldr	x0, [sp, #40]
 c30:	97ffff60 	bl	9b0 <munmap@plt>
 c34:	b94027e0 	ldr	w0, [sp, #36]
 c38:	97ffff46 	bl	950 <close@plt>
 c3c:	52800000 	mov	w0, #0x0                   	// #0
 c40:	a8c37bfd 	ldp	x29, x30, [sp], #48
 c44:	d65f03c0 	ret

0000000000000c48 <virtual_to_physical>:
virtual_to_physical():
 c48:	a9bc7bfd 	stp	x29, x30, [sp, #-64]!
 c4c:	910003fd 	mov	x29, sp
 c50:	f9000fe0 	str	x0, [sp, #24]
 c54:	d0000000 	adrp	x0, 2000 <__FRAME_END__+0x1050>
 c58:	f947f400 	ldr	x0, [x0, #4072]
 c5c:	f9400001 	ldr	x1, [x0]
 c60:	f9001fe1 	str	x1, [sp, #56]
 c64:	d2800001 	mov	x1, #0x0                   	// #0
 c68:	52800001 	mov	w1, #0x0                   	// #0
 c6c:	90000000 	adrp	x0, 0 <__abi_tag-0x254>
 c70:	91388000 	add	x0, x0, #0xe20
 c74:	97ffff2f 	bl	930 <open@plt>
 c78:	b90027e0 	str	w0, [sp, #36]
 c7c:	b94027e0 	ldr	w0, [sp, #36]
 c80:	3100041f 	cmn	w0, #0x1
 c84:	540000c1 	b.ne	c9c <virtual_to_physical+0x54>  // b.any
 c88:	90000000 	adrp	x0, 0 <__abi_tag-0x254>
 c8c:	9138e000 	add	x0, x0, #0xe38
 c90:	97ffff20 	bl	910 <perror@plt>
 c94:	d2800000 	mov	x0, #0x0                   	// #0
 c98:	1400001b 	b	d04 <virtual_to_physical+0xbc>
 c9c:	f9400fe0 	ldr	x0, [sp, #24]
 ca0:	d34cfc00 	lsr	x0, x0, #12
 ca4:	d37df000 	lsl	x0, x0, #3
 ca8:	f9001be0 	str	x0, [sp, #48]
 cac:	9100a3e0 	add	x0, sp, #0x28
 cb0:	f9401be3 	ldr	x3, [sp, #48]
 cb4:	d2800102 	mov	x2, #0x8                   	// #8
 cb8:	aa0003e1 	mov	x1, x0
 cbc:	b94027e0 	ldr	w0, [sp, #36]
 cc0:	97ffff38 	bl	9a0 <pread@plt>
 cc4:	f100201f 	cmp	x0, #0x8
 cc8:	54000100 	b.eq	ce8 <virtual_to_physical+0xa0>  // b.none
 ccc:	90000000 	adrp	x0, 0 <__abi_tag-0x254>
 cd0:	91390000 	add	x0, x0, #0xe40
 cd4:	97ffff0f 	bl	910 <perror@plt>
 cd8:	b94027e0 	ldr	w0, [sp, #36]
 cdc:	97ffff1d 	bl	950 <close@plt>
 ce0:	d2800000 	mov	x0, #0x0                   	// #0
 ce4:	14000008 	b	d04 <virtual_to_physical+0xbc>
 ce8:	b94027e0 	ldr	w0, [sp, #36]
 cec:	97ffff19 	bl	950 <close@plt>
 cf0:	f94017e0 	ldr	x0, [sp, #40]
 cf4:	d374cc01 	lsl	x1, x0, #12
 cf8:	f9400fe0 	ldr	x0, [sp, #24]
 cfc:	92402400 	and	x0, x0, #0x3ff
 d00:	aa000020 	orr	x0, x1, x0
 d04:	aa0003e1 	mov	x1, x0
 d08:	d0000000 	adrp	x0, 2000 <__FRAME_END__+0x1050>
 d0c:	f947f400 	ldr	x0, [x0, #4072]
 d10:	f9401fe3 	ldr	x3, [sp, #56]
 d14:	f9400002 	ldr	x2, [x0]
 d18:	eb020063 	subs	x3, x3, x2
 d1c:	d2800002 	mov	x2, #0x0                   	// #0
 d20:	54000040 	b.eq	d28 <virtual_to_physical+0xe0>  // b.none
 d24:	97ffff07 	bl	940 <__stack_chk_fail@plt>
 d28:	aa0103e0 	mov	x0, x1
 d2c:	a8c47bfd 	ldp	x29, x30, [sp], #64
 d30:	d65f03c0 	ret

0000000000000d34 <getPhysicalAddress>:
getPhysicalAddress():
 d34:	a9bd7bfd 	stp	x29, x30, [sp, #-48]!
 d38:	910003fd 	mov	x29, sp
 d3c:	f9000fe0 	str	x0, [sp, #24]
 d40:	f9400fe0 	ldr	x0, [sp, #24]
 d44:	f90013e0 	str	x0, [sp, #32]
 d48:	f94013e1 	ldr	x1, [sp, #32]
 d4c:	90000000 	adrp	x0, 0 <__abi_tag-0x254>
 d50:	91392000 	add	x0, x0, #0xe48
 d54:	97ffff1b 	bl	9c0 <printf@plt>
 d58:	f94013e0 	ldr	x0, [sp, #32]
 d5c:	97ffffbb 	bl	c48 <virtual_to_physical>
 d60:	f90017e0 	str	x0, [sp, #40]
 d64:	f94017e1 	ldr	x1, [sp, #40]
 d68:	90000000 	adrp	x0, 0 <__abi_tag-0x254>
 d6c:	91398000 	add	x0, x0, #0xe60
 d70:	97ffff14 	bl	9c0 <printf@plt>
 d74:	d503201f 	nop
 d78:	a8c37bfd 	ldp	x29, x30, [sp], #48
 d7c:	d65f03c0 	ret

Disassembly of section .fini:

0000000000000d80 <_fini>:
_fini():
 d80:	d503201f 	nop
 d84:	a9bf7bfd 	stp	x29, x30, [sp, #-16]!
 d88:	910003fd 	mov	x29, sp
 d8c:	a8c17bfd 	ldp	x29, x30, [sp], #16
 d90:	d65f03c0 	ret
