
victim_match:     file format elf64-littleaarch64


Disassembly of section .interp:

0000000000000238 <.interp>:
 238:	62696c2f 	.inst	0x62696c2f ; undefined
 23c:	2d646c2f 	ldp	s15, s27, [x1, #-224]
 240:	756e696c 	.inst	0x756e696c ; undefined
 244:	61612d78 	.inst	0x61612d78 ; undefined
 248:	36686372 	tbz	w18, #13, eb4 <__GNU_EH_FRAME_HDR+0x3c>
 24c:	6f732e34 	.inst	0x6f732e34 ; undefined
 250:	Address 0x0000000000000250 is out of bounds.


Disassembly of section .note.ABI-tag:

0000000000000254 <__abi_tag>:
 254:	00000004 	udf	#4
 258:	00000010 	udf	#16
 25c:	00000001 	udf	#1
 260:	00554e47 	.inst	0x00554e47 ; undefined
 264:	00000000 	udf	#0
 268:	00000006 	udf	#6
	...

Disassembly of section .hash:

0000000000000278 <.hash>:
 278:	00000011 	udf	#17
 27c:	00000014 	udf	#20
 280:	00000010 	udf	#16
 284:	00000007 	udf	#7
 288:	00000000 	udf	#0
 28c:	00000012 	udf	#18
 290:	0000000e 	udf	#14
 294:	00000011 	udf	#17
 298:	0000000c 	udf	#12
 29c:	00000004 	udf	#4
 2a0:	00000000 	udf	#0
 2a4:	00000005 	udf	#5
 2a8:	00000013 	udf	#19
 2ac:	00000000 	udf	#0
 2b0:	00000009 	udf	#9
 2b4:	00000003 	udf	#3
 2b8:	00000000 	udf	#0
 2bc:	0000000f 	udf	#15
	...
 2e8:	00000006 	udf	#6
	...
 2f8:	00000008 	udf	#8
 2fc:	00000000 	udf	#0
 300:	0000000b 	udf	#11
	...
 30c:	0000000a 	udf	#10
 310:	0000000d 	udf	#13

Disassembly of section .gnu.hash:

0000000000000318 <.gnu.hash>:
 318:	00000001 	udf	#1
 31c:	00000001 	udf	#1
 320:	00000001 	udf	#1
	...

Disassembly of section .dynsym:

0000000000000338 <.dynsym>:
	...
 354:	000b0003 	.inst	0x000b0003 ; undefined
 358:	000008b8 	udf	#2232
	...
 36c:	00160003 	.inst	0x00160003 ; undefined
 370:	00003000 	udf	#12288
	...
 380:	0000001e 	udf	#30
 384:	00000012 	udf	#18
	...
 398:	0000002f 	udf	#47
 39c:	00000012 	udf	#18
	...
 3b0:	00000006 	udf	#6
 3b4:	00000012 	udf	#18
	...
 3c8:	000000b6 	udf	#182
 3cc:	00000020 	udf	#32
	...
 3e0:	00000047 	udf	#71
 3e4:	00000022 	udf	#34
	...
 3f8:	0000002a 	udf	#42
 3fc:	00000012 	udf	#18
	...
 410:	0000000d 	udf	#13
 414:	00000012 	udf	#18
	...
 428:	00000056 	udf	#86
 42c:	00000012 	udf	#18
	...
 440:	000000d2 	udf	#210
 444:	00000020 	udf	#32
	...
 458:	0000006e 	udf	#110
 45c:	00000011 	udf	#17
	...
 470:	00000063 	udf	#99
 474:	00000012 	udf	#18
	...
 488:	00000001 	udf	#1
 48c:	00000012 	udf	#18
	...
 4a0:	00000069 	udf	#105
 4a4:	00000012 	udf	#18
	...
 4b8:	00000041 	udf	#65
 4bc:	00000012 	udf	#18
	...
 4d0:	00000023 	udf	#35
 4d4:	00000012 	udf	#18
	...
 4e8:	000000e1 	udf	#225
 4ec:	00000020 	udf	#32
	...
 500:	0000005c 	udf	#92
 504:	00000012 	udf	#18
	...

Disassembly of section .dynstr:

0000000000000518 <.dynstr>:
 518:	74757000 	.inst	0x74757000 ; undefined
 51c:	65700073 	fmla	z19.h, p0/m, z3.h, z16.h
 520:	726f7272 	.inst	0x726f7272 ; undefined
 524:	735f5f00 	.inst	0x735f5f00 ; undefined
 528:	6b636174 	.inst	0x6b636174 ; undefined
 52c:	6b68635f 	.inst	0x6b68635f ; undefined
 530:	6961665f 	ldpsw	xzr, x25, [x18, #-248]
 534:	7865006c 	ldaddlh	w5, w12, [x3]
 538:	6d007469 	stp	d9, d29, [x3]
 53c:	616d6e75 	.inst	0x616d6e75 ; undefined
 540:	706f0070 	adr	x16, de54f <__bss_end__+0xdb537>
 544:	5f006e65 	.inst	0x5f006e65 ; undefined
 548:	62696c5f 	.inst	0x62696c5f ; undefined
 54c:	74735f63 	.inst	0x74735f63 ; undefined
 550:	5f747261 	sqdmlsl	s1, h19, v4.h[3]
 554:	6e69616d 	rsubhn2	v13.8h, v11.4s, v9.4s
 558:	65727000 	fnmls	z0.h, p4/m, z0.h, z18.h
 55c:	5f006461 	.inst	0x5f006461 ; undefined
 560:	6178635f 	.inst	0x6178635f ; undefined
 564:	6e69665f 	umax	v31.8h, v18.8h, v9.8h
 568:	7a696c61 	.inst	0x7a696c61 ; undefined
 56c:	6c630065 	ldnp	d5, d0, [x3, #-464]
 570:	0065736f 	.inst	0x0065736f ; undefined
 574:	6e697270 	uabdl2	v16.4s, v19.8h, v9.8h
 578:	61006674 	.inst	0x61006674 ; undefined
 57c:	74726f62 	.inst	0x74726f62 ; undefined
 580:	616d6d00 	.inst	0x616d6d00 ; undefined
 584:	5f5f0070 	.inst	0x5f5f0070 ; undefined
 588:	63617473 	.inst	0x63617473 ; undefined
 58c:	68635f6b 	.inst	0x68635f6b ; undefined
 590:	75675f6b 	.inst	0x75675f6b ; undefined
 594:	00647261 	.inst	0x00647261 ; undefined
 598:	6362696c 	.inst	0x6362696c ; undefined
 59c:	2e6f732e 	uabdl	v14.4s, v25.4h, v15.4h
 5a0:	646c0036 	fmla	z22.h, z1.h, z4.h[5]
 5a4:	6e696c2d 	umin	v13.8h, v1.8h, v9.8h
 5a8:	612d7875 	.inst	0x612d7875 ; undefined
 5ac:	68637261 	.inst	0x68637261 ; undefined
 5b0:	732e3436 	.inst	0x732e3436 ; undefined
 5b4:	00312e6f 	.inst	0x00312e6f ; NYI
 5b8:	42494c47 	.inst	0x42494c47 ; undefined
 5bc:	2e325f43 	uqrshl	v3.8b, v26.8b, v18.8b
 5c0:	47003731 	.inst	0x47003731 ; undefined
 5c4:	4342494c 	.inst	0x4342494c ; undefined
 5c8:	332e325f 	.inst	0x332e325f ; undefined
 5cc:	495f0034 	.inst	0x495f0034 ; undefined
 5d0:	645f4d54 	fcmla	z20.h, p3/m, z10.h, z31.h, #180
 5d4:	67657265 	.inst	0x67657265 ; undefined
 5d8:	65747369 	fnmls	z9.h, p4/m, z27.h, z20.h
 5dc:	434d5472 	.inst	0x434d5472 ; undefined
 5e0:	656e6f6c 	fnmls	z12.h, p3/m, z27.h, z14.h
 5e4:	6c626154 	ldnp	d20, d24, [x10, #-480]
 5e8:	5f5f0065 	.inst	0x5f5f0065 ; undefined
 5ec:	6e6f6d67 	umin	v7.8h, v11.8h, v15.8h
 5f0:	6174735f 	.inst	0x6174735f ; undefined
 5f4:	5f5f7472 	sqshl	d18, d3, #31
 5f8:	54495f00 	b.eq	931d8 <__bss_end__+0x901c0>  // b.none
 5fc:	65725f4d 	fnmla	z13.h, p7/m, z26.h, z18.h
 600:	74736967 	.inst	0x74736967 ; undefined
 604:	4d547265 	.inst	0x4d547265 ; undefined
 608:	6e6f6c43 	umin	v3.8h, v2.8h, v15.8h
 60c:	62615465 	.inst	0x62615465 ; undefined
 610:	Address 0x0000000000000610 is out of bounds.


Disassembly of section .gnu.version:

0000000000000614 <.gnu.version>:
 614:	00000000 	udf	#0
 618:	00020000 	.inst	0x00020000 ; undefined
 61c:	00020003 	.inst	0x00020003 ; undefined
 620:	00020001 	.inst	0x00020001 ; undefined
 624:	00020002 	.inst	0x00020002 ; undefined
 628:	00010002 	.inst	0x00010002 ; undefined
 62c:	00020004 	.inst	0x00020004 ; undefined
 630:	00020002 	.inst	0x00020002 ; undefined
 634:	00020002 	.inst	0x00020002 ; undefined
 638:	00020001 	.inst	0x00020001 ; undefined

Disassembly of section .gnu.version_r:

0000000000000640 <.gnu.version_r>:
 640:	00010001 	.inst	0x00010001 ; undefined
 644:	0000008a 	udf	#138
 648:	00000010 	udf	#16
 64c:	00000020 	udf	#32
 650:	06969197 	.inst	0x06969197 ; undefined
 654:	00040000 	.inst	0x00040000 ; undefined
 658:	000000a0 	udf	#160
 65c:	00000000 	udf	#0
 660:	00020001 	.inst	0x00020001 ; undefined
 664:	00000080 	udf	#128
 668:	00000010 	udf	#16
 66c:	00000000 	udf	#0
 670:	069691b4 	.inst	0x069691b4 ; undefined
 674:	00030000 	.inst	0x00030000 ; undefined
 678:	000000ab 	udf	#171
 67c:	00000010 	udf	#16
 680:	06969197 	.inst	0x06969197 ; undefined
 684:	00020000 	.inst	0x00020000 ; undefined
 688:	000000a0 	udf	#160
 68c:	00000000 	udf	#0

Disassembly of section .rela.dyn:

0000000000000690 <.rela.dyn>:
 690:	00002d20 	udf	#11552
 694:	00000000 	udf	#0
 698:	00000403 	udf	#1027
 69c:	00000000 	udf	#0
 6a0:	00000afc 	udf	#2812
 6a4:	00000000 	udf	#0
 6a8:	00002d28 	udf	#11560
 6ac:	00000000 	udf	#0
 6b0:	00000403 	udf	#1027
 6b4:	00000000 	udf	#0
 6b8:	00000ab4 	udf	#2740
 6bc:	00000000 	udf	#0
 6c0:	00002ff0 	udf	#12272
 6c4:	00000000 	udf	#0
 6c8:	00000403 	udf	#1027
 6cc:	00000000 	udf	#0
 6d0:	00000b00 	udf	#2816
 6d4:	00000000 	udf	#0
 6d8:	00003008 	udf	#12296
 6dc:	00000000 	udf	#0
 6e0:	00000403 	udf	#1027
 6e4:	00000000 	udf	#0
 6e8:	00003008 	udf	#12296
 6ec:	00000000 	udf	#0
 6f0:	00002fd0 	udf	#12240
 6f4:	00000000 	udf	#0
 6f8:	00000401 	udf	#1025
 6fc:	00000006 	udf	#6
	...
 708:	00002fd8 	udf	#12248
 70c:	00000000 	udf	#0
 710:	00000401 	udf	#1025
 714:	00000007 	udf	#7
	...
 720:	00002fe0 	udf	#12256
 724:	00000000 	udf	#0
 728:	00000401 	udf	#1025
 72c:	0000000b 	udf	#11
	...
 738:	00002fe8 	udf	#12264
 73c:	00000000 	udf	#0
 740:	00000401 	udf	#1025
 744:	0000000c 	udf	#12
	...
 750:	00002ff8 	udf	#12280
 754:	00000000 	udf	#0
 758:	00000401 	udf	#1025
 75c:	00000012 	udf	#18
	...

Disassembly of section .rela.plt:

0000000000000768 <.rela.plt>:
 768:	00002f58 	udf	#12120
 76c:	00000000 	udf	#0
 770:	00000402 	udf	#1026
 774:	00000003 	udf	#3
	...
 780:	00002f60 	udf	#12128
 784:	00000000 	udf	#0
 788:	00000402 	udf	#1026
 78c:	00000004 	udf	#4
	...
 798:	00002f68 	udf	#12136
 79c:	00000000 	udf	#0
 7a0:	00000402 	udf	#1026
 7a4:	00000005 	udf	#5
	...
 7b0:	00002f70 	udf	#12144
 7b4:	00000000 	udf	#0
 7b8:	00000402 	udf	#1026
 7bc:	00000007 	udf	#7
	...
 7c8:	00002f78 	udf	#12152
 7cc:	00000000 	udf	#0
 7d0:	00000402 	udf	#1026
 7d4:	00000008 	udf	#8
	...
 7e0:	00002f80 	udf	#12160
 7e4:	00000000 	udf	#0
 7e8:	00000402 	udf	#1026
 7ec:	00000009 	udf	#9
	...
 7f8:	00002f88 	udf	#12168
 7fc:	00000000 	udf	#0
 800:	00000402 	udf	#1026
 804:	0000000a 	udf	#10
	...
 810:	00002f90 	udf	#12176
 814:	00000000 	udf	#0
 818:	00000402 	udf	#1026
 81c:	0000000b 	udf	#11
	...
 828:	00002f98 	udf	#12184
 82c:	00000000 	udf	#0
 830:	00000402 	udf	#1026
 834:	0000000d 	udf	#13
	...
 840:	00002fa0 	udf	#12192
 844:	00000000 	udf	#0
 848:	00000402 	udf	#1026
 84c:	0000000e 	udf	#14
	...
 858:	00002fa8 	udf	#12200
 85c:	00000000 	udf	#0
 860:	00000402 	udf	#1026
 864:	0000000f 	udf	#15
	...
 870:	00002fb0 	udf	#12208
 874:	00000000 	udf	#0
 878:	00000402 	udf	#1026
 87c:	00000010 	udf	#16
	...
 888:	00002fb8 	udf	#12216
 88c:	00000000 	udf	#0
 890:	00000402 	udf	#1026
 894:	00000011 	udf	#17
	...
 8a0:	00002fc0 	udf	#12224
 8a4:	00000000 	udf	#0
 8a8:	00000402 	udf	#1026
 8ac:	00000013 	udf	#19
	...

Disassembly of section .init:

00000000000008b8 <_init>:
_init():
 8b8:	d503201f 	nop
 8bc:	a9bf7bfd 	stp	x29, x30, [sp, #-16]!
 8c0:	910003fd 	mov	x29, sp
 8c4:	9400005c 	bl	a34 <call_weak_fn>
 8c8:	a8c17bfd 	ldp	x29, x30, [sp], #16
 8cc:	d65f03c0 	ret

Disassembly of section .plt:

00000000000008d0 <.plt>:
 8d0:	a9bf7bf0 	stp	x16, x30, [sp, #-16]!
 8d4:	d0000010 	adrp	x16, 2000 <__FRAME_END__+0x1050>
 8d8:	f947aa11 	ldr	x17, [x16, #3920]
 8dc:	913d4210 	add	x16, x16, #0xf50
 8e0:	d61f0220 	br	x17
 8e4:	d503201f 	nop
 8e8:	d503201f 	nop
 8ec:	d503201f 	nop

00000000000008f0 <exit@plt>:
 8f0:	d0000010 	adrp	x16, 2000 <__FRAME_END__+0x1050>
 8f4:	f947ae11 	ldr	x17, [x16, #3928]
 8f8:	913d6210 	add	x16, x16, #0xf58
 8fc:	d61f0220 	br	x17

0000000000000900 <__libc_start_main@plt>:
 900:	d0000010 	adrp	x16, 2000 <__FRAME_END__+0x1050>
 904:	f947b211 	ldr	x17, [x16, #3936]
 908:	913d8210 	add	x16, x16, #0xf60
 90c:	d61f0220 	br	x17

0000000000000910 <perror@plt>:
 910:	d0000010 	adrp	x16, 2000 <__FRAME_END__+0x1050>
 914:	f947b611 	ldr	x17, [x16, #3944]
 918:	913da210 	add	x16, x16, #0xf68
 91c:	d61f0220 	br	x17

0000000000000920 <__cxa_finalize@plt>:
 920:	d0000010 	adrp	x16, 2000 <__FRAME_END__+0x1050>
 924:	f947ba11 	ldr	x17, [x16, #3952]
 928:	913dc210 	add	x16, x16, #0xf70
 92c:	d61f0220 	br	x17

0000000000000930 <open@plt>:
 930:	d0000010 	adrp	x16, 2000 <__FRAME_END__+0x1050>
 934:	f947be11 	ldr	x17, [x16, #3960]
 938:	913de210 	add	x16, x16, #0xf78
 93c:	d61f0220 	br	x17

0000000000000940 <__stack_chk_fail@plt>:
 940:	d0000010 	adrp	x16, 2000 <__FRAME_END__+0x1050>
 944:	f947c211 	ldr	x17, [x16, #3968]
 948:	913e0210 	add	x16, x16, #0xf80
 94c:	d61f0220 	br	x17

0000000000000950 <close@plt>:
 950:	d0000010 	adrp	x16, 2000 <__FRAME_END__+0x1050>
 954:	f947c611 	ldr	x17, [x16, #3976]
 958:	913e2210 	add	x16, x16, #0xf88
 95c:	d61f0220 	br	x17

0000000000000960 <__gmon_start__@plt>:
 960:	d0000010 	adrp	x16, 2000 <__FRAME_END__+0x1050>
 964:	f947ca11 	ldr	x17, [x16, #3984]
 968:	913e4210 	add	x16, x16, #0xf90
 96c:	d61f0220 	br	x17

0000000000000970 <abort@plt>:
 970:	d0000010 	adrp	x16, 2000 <__FRAME_END__+0x1050>
 974:	f947ce11 	ldr	x17, [x16, #3992]
 978:	913e6210 	add	x16, x16, #0xf98
 97c:	d61f0220 	br	x17

0000000000000980 <puts@plt>:
 980:	d0000010 	adrp	x16, 2000 <__FRAME_END__+0x1050>
 984:	f947d211 	ldr	x17, [x16, #4000]
 988:	913e8210 	add	x16, x16, #0xfa0
 98c:	d61f0220 	br	x17

0000000000000990 <mmap@plt>:
 990:	d0000010 	adrp	x16, 2000 <__FRAME_END__+0x1050>
 994:	f947d611 	ldr	x17, [x16, #4008]
 998:	913ea210 	add	x16, x16, #0xfa8
 99c:	d61f0220 	br	x17

00000000000009a0 <pread@plt>:
 9a0:	d0000010 	adrp	x16, 2000 <__FRAME_END__+0x1050>
 9a4:	f947da11 	ldr	x17, [x16, #4016]
 9a8:	913ec210 	add	x16, x16, #0xfb0
 9ac:	d61f0220 	br	x17

00000000000009b0 <munmap@plt>:
 9b0:	d0000010 	adrp	x16, 2000 <__FRAME_END__+0x1050>
 9b4:	f947de11 	ldr	x17, [x16, #4024]
 9b8:	913ee210 	add	x16, x16, #0xfb8
 9bc:	d61f0220 	br	x17

00000000000009c0 <printf@plt>:
 9c0:	d0000010 	adrp	x16, 2000 <__FRAME_END__+0x1050>
 9c4:	f947e211 	ldr	x17, [x16, #4032]
 9c8:	913f0210 	add	x16, x16, #0xfc0
 9cc:	d61f0220 	br	x17

Disassembly of section .text:

0000000000000a00 <_start>:
_start():
 a00:	d503201f 	nop
 a04:	d280001d 	mov	x29, #0x0                   	// #0
 a08:	d280001e 	mov	x30, #0x0                   	// #0
 a0c:	aa0003e5 	mov	x5, x0
 a10:	f94003e1 	ldr	x1, [sp]
 a14:	910023e2 	add	x2, sp, #0x8
 a18:	910003e6 	mov	x6, sp
 a1c:	d0000000 	adrp	x0, 2000 <__FRAME_END__+0x1050>
 a20:	f947f800 	ldr	x0, [x0, #4080]
 a24:	d2800003 	mov	x3, #0x0                   	// #0
 a28:	d2800004 	mov	x4, #0x0                   	// #0
 a2c:	97ffffb5 	bl	900 <__libc_start_main@plt>
 a30:	97ffffd0 	bl	970 <abort@plt>

0000000000000a34 <call_weak_fn>:
call_weak_fn():
 a34:	d0000000 	adrp	x0, 2000 <__FRAME_END__+0x1050>
 a38:	f947f000 	ldr	x0, [x0, #4064]
 a3c:	b4000040 	cbz	x0, a44 <call_weak_fn+0x10>
 a40:	17ffffc8 	b	960 <__gmon_start__@plt>
 a44:	d65f03c0 	ret

0000000000000a48 <deregister_tm_clones>:
deregister_tm_clones():
 a48:	f0000000 	adrp	x0, 3000 <__data_start>
 a4c:	91004000 	add	x0, x0, #0x10
 a50:	f0000001 	adrp	x1, 3000 <__data_start>
 a54:	91004021 	add	x1, x1, #0x10
 a58:	eb00003f 	cmp	x1, x0
 a5c:	540000c0 	b.eq	a74 <deregister_tm_clones+0x2c>  // b.none
 a60:	d0000001 	adrp	x1, 2000 <__FRAME_END__+0x1050>
 a64:	f947e821 	ldr	x1, [x1, #4048]
 a68:	b4000061 	cbz	x1, a74 <deregister_tm_clones+0x2c>
 a6c:	aa0103f0 	mov	x16, x1
 a70:	d61f0200 	br	x16
 a74:	d65f03c0 	ret

0000000000000a78 <register_tm_clones>:
register_tm_clones():
 a78:	f0000000 	adrp	x0, 3000 <__data_start>
 a7c:	91004000 	add	x0, x0, #0x10
 a80:	f0000001 	adrp	x1, 3000 <__data_start>
 a84:	91004021 	add	x1, x1, #0x10
 a88:	cb000021 	sub	x1, x1, x0
 a8c:	d2800042 	mov	x2, #0x2                   	// #2
 a90:	9343fc21 	asr	x1, x1, #3
 a94:	9ac20c21 	sdiv	x1, x1, x2
 a98:	b40000c1 	cbz	x1, ab0 <register_tm_clones+0x38>
 a9c:	d0000002 	adrp	x2, 2000 <__FRAME_END__+0x1050>
 aa0:	f947fc42 	ldr	x2, [x2, #4088]
 aa4:	b4000062 	cbz	x2, ab0 <register_tm_clones+0x38>
 aa8:	aa0203f0 	mov	x16, x2
 aac:	d61f0200 	br	x16
 ab0:	d65f03c0 	ret

0000000000000ab4 <__do_global_dtors_aux>:
__do_global_dtors_aux():
 ab4:	a9be7bfd 	stp	x29, x30, [sp, #-32]!
 ab8:	910003fd 	mov	x29, sp
 abc:	f9000bf3 	str	x19, [sp, #16]
 ac0:	f0000013 	adrp	x19, 3000 <__data_start>
 ac4:	39404260 	ldrb	w0, [x19, #16]
 ac8:	35000140 	cbnz	w0, af0 <__do_global_dtors_aux+0x3c>
 acc:	d0000000 	adrp	x0, 2000 <__FRAME_END__+0x1050>
 ad0:	f947ec00 	ldr	x0, [x0, #4056]
 ad4:	b4000080 	cbz	x0, ae4 <__do_global_dtors_aux+0x30>
 ad8:	f0000000 	adrp	x0, 3000 <__data_start>
 adc:	f9400400 	ldr	x0, [x0, #8]
 ae0:	97ffff90 	bl	920 <__cxa_finalize@plt>
 ae4:	97ffffd9 	bl	a48 <deregister_tm_clones>
 ae8:	52800020 	mov	w0, #0x1                   	// #1
 aec:	39004260 	strb	w0, [x19, #16]
 af0:	f9400bf3 	ldr	x19, [sp, #16]
 af4:	a8c27bfd 	ldp	x29, x30, [sp], #32
 af8:	d65f03c0 	ret

0000000000000afc <frame_dummy>:
frame_dummy():
 afc:	17ffffdf 	b	a78 <register_tm_clones>

0000000000000b00 <main>:
main():
 b00:	a9bd7bfd 	stp	x29, x30, [sp, #-48]!
 b04:	910003fd 	mov	x29, sp
 b08:	b90013ff 	str	wzr, [sp, #16]
 b0c:	52800140 	mov	w0, #0xa                   	// #10
 b10:	b9001be0 	str	w0, [sp, #24]
 b14:	b9001fff 	str	wzr, [sp, #28]
 b18:	52a80000 	mov	w0, #0x40000000            	// #1073741824
 b1c:	b90023e0 	str	w0, [sp, #32]
 b20:	52820041 	mov	w1, #0x1002                	// #4098
 b24:	72a00201 	movk	w1, #0x10, lsl #16
 b28:	90000000 	adrp	x0, 0 <__abi_tag-0x254>
 b2c:	91368000 	add	x0, x0, #0xda0
 b30:	97ffff80 	bl	930 <open@plt>
 b34:	b90027e0 	str	w0, [sp, #36]
 b38:	b94027e0 	ldr	w0, [sp, #36]
 b3c:	3100041f 	cmn	w0, #0x1
 b40:	540000c1 	b.ne	b58 <main+0x58>  // b.any
 b44:	90000000 	adrp	x0, 0 <__abi_tag-0x254>
 b48:	9136c000 	add	x0, x0, #0xdb0
 b4c:	97ffff71 	bl	910 <perror@plt>
 b50:	52800020 	mov	w0, #0x1                   	// #1
 b54:	97ffff67 	bl	8f0 <exit@plt>
 b58:	b94023e0 	ldr	w0, [sp, #32]
 b5c:	aa0003e5 	mov	x5, x0
 b60:	b94027e4 	ldr	w4, [sp, #36]
 b64:	52800023 	mov	w3, #0x1                   	// #1
 b68:	52800062 	mov	w2, #0x3                   	// #3
 b6c:	d2820001 	mov	x1, #0x1000                	// #4096
 b70:	d2800000 	mov	x0, #0x0                   	// #0
 b74:	97ffff87 	bl	990 <mmap@plt>
 b78:	f90017e0 	str	x0, [sp, #40]
 b7c:	f94017e0 	ldr	x0, [sp, #40]
 b80:	b100041f 	cmn	x0, #0x1
 b84:	54000101 	b.ne	ba4 <main+0xa4>  // b.any
 b88:	90000000 	adrp	x0, 0 <__abi_tag-0x254>
 b8c:	91372000 	add	x0, x0, #0xdc8
 b90:	97ffff60 	bl	910 <perror@plt>
 b94:	b94027e0 	ldr	w0, [sp, #36]
 b98:	97ffff6e 	bl	950 <close@plt>
 b9c:	52800020 	mov	w0, #0x1                   	// #1
 ba0:	97ffff54 	bl	8f0 <exit@plt>
 ba4:	90000000 	adrp	x0, 0 <__abi_tag-0x254>
 ba8:	91376000 	add	x0, x0, #0xdd8
 bac:	97ffff75 	bl	980 <puts@plt>
 bb0:	b90017ff 	str	wzr, [sp, #20]
 bb4:	14000007 	b	bd0 <main+0xd0>
 bb8:	b94013e0 	ldr	w0, [sp, #16]
 bbc:	11000800 	add	w0, w0, #0x2
 bc0:	b90013e0 	str	w0, [sp, #16]
 bc4:	b94017e0 	ldr	w0, [sp, #20]
 bc8:	11000400 	add	w0, w0, #0x1
 bcc:	b90017e0 	str	w0, [sp, #20]
 bd0:	b94017e1 	ldr	w1, [sp, #20]
 bd4:	b9401be0 	ldr	w0, [sp, #24]
 bd8:	6b00003f 	cmp	w1, w0
 bdc:	54fffeeb 	b.lt	bb8 <main+0xb8>  // b.tstop
 be0:	b9401be2 	ldr	w2, [sp, #24]
 be4:	b94013e1 	ldr	w1, [sp, #16]
 be8:	90000000 	adrp	x0, 0 <__abi_tag-0x254>
 bec:	91378000 	add	x0, x0, #0xde0
 bf0:	97ffff74 	bl	9c0 <printf@plt>
 bf4:	f94017e0 	ldr	x0, [sp, #40]
 bf8:	b9400000 	ldr	w0, [x0]
 bfc:	2a0003e1 	mov	w1, w0
 c00:	90000000 	adrp	x0, 0 <__abi_tag-0x254>
 c04:	91382000 	add	x0, x0, #0xe08
 c08:	97ffff6e 	bl	9c0 <printf@plt>
 c0c:	f94017e0 	ldr	x0, [sp, #40]
 c10:	5297dde1 	mov	w1, #0xbeef                	// #48879
 c14:	72bbd5a1 	movk	w1, #0xdead, lsl #16
 c18:	b9000001 	str	w1, [x0]
 c1c:	90000000 	adrp	x0, 0 <__abi_tag-0x254>
 c20:	912c0000 	add	x0, x0, #0xb00
 c24:	94000044 	bl	d34 <getPhysicalAddress>
 c28:	d2820001 	mov	x1, #0x1000                	// #4096
 c2c:	f94017e0 	ldr	x0, [sp, #40]
 c30:	97ffff60 	bl	9b0 <munmap@plt>
 c34:	b94027e0 	ldr	w0, [sp, #36]
 c38:	97ffff46 	bl	950 <close@plt>
 c3c:	52800000 	mov	w0, #0x0                   	// #0
 c40:	a8c37bfd 	ldp	x29, x30, [sp], #48
 c44:	d65f03c0 	ret

0000000000000c48 <virtual_to_physical>:
virtual_to_physical():
 c48:	a9bc7bfd 	stp	x29, x30, [sp, #-64]!
 c4c:	910003fd 	mov	x29, sp
 c50:	f9000fe0 	str	x0, [sp, #24]
 c54:	d0000000 	adrp	x0, 2000 <__FRAME_END__+0x1050>
 c58:	f947f400 	ldr	x0, [x0, #4072]
 c5c:	f9400001 	ldr	x1, [x0]
 c60:	f9001fe1 	str	x1, [sp, #56]
 c64:	d2800001 	mov	x1, #0x0                   	// #0
 c68:	52800001 	mov	w1, #0x0                   	// #0
 c6c:	90000000 	adrp	x0, 0 <__abi_tag-0x254>
 c70:	91388000 	add	x0, x0, #0xe20
 c74:	97ffff2f 	bl	930 <open@plt>
 c78:	b90027e0 	str	w0, [sp, #36]
 c7c:	b94027e0 	ldr	w0, [sp, #36]
 c80:	3100041f 	cmn	w0, #0x1
 c84:	540000c1 	b.ne	c9c <virtual_to_physical+0x54>  // b.any
 c88:	90000000 	adrp	x0, 0 <__abi_tag-0x254>
 c8c:	9138e000 	add	x0, x0, #0xe38
 c90:	97ffff20 	bl	910 <perror@plt>
 c94:	d2800000 	mov	x0, #0x0                   	// #0
 c98:	1400001b 	b	d04 <virtual_to_physical+0xbc>
 c9c:	f9400fe0 	ldr	x0, [sp, #24]
 ca0:	d34cfc00 	lsr	x0, x0, #12
 ca4:	d37df000 	lsl	x0, x0, #3
 ca8:	f9001be0 	str	x0, [sp, #48]
 cac:	9100a3e0 	add	x0, sp, #0x28
 cb0:	f9401be3 	ldr	x3, [sp, #48]
 cb4:	d2800102 	mov	x2, #0x8                   	// #8
 cb8:	aa0003e1 	mov	x1, x0
 cbc:	b94027e0 	ldr	w0, [sp, #36]
 cc0:	97ffff38 	bl	9a0 <pread@plt>
 cc4:	f100201f 	cmp	x0, #0x8
 cc8:	54000100 	b.eq	ce8 <virtual_to_physical+0xa0>  // b.none
 ccc:	90000000 	adrp	x0, 0 <__abi_tag-0x254>
 cd0:	91390000 	add	x0, x0, #0xe40
 cd4:	97ffff0f 	bl	910 <perror@plt>
 cd8:	b94027e0 	ldr	w0, [sp, #36]
 cdc:	97ffff1d 	bl	950 <close@plt>
 ce0:	d2800000 	mov	x0, #0x0                   	// #0
 ce4:	14000008 	b	d04 <virtual_to_physical+0xbc>
 ce8:	b94027e0 	ldr	w0, [sp, #36]
 cec:	97ffff19 	bl	950 <close@plt>
 cf0:	f94017e0 	ldr	x0, [sp, #40]
 cf4:	d374cc01 	lsl	x1, x0, #12
 cf8:	f9400fe0 	ldr	x0, [sp, #24]
 cfc:	92402400 	and	x0, x0, #0x3ff
 d00:	aa000020 	orr	x0, x1, x0
 d04:	aa0003e1 	mov	x1, x0
 d08:	d0000000 	adrp	x0, 2000 <__FRAME_END__+0x1050>
 d0c:	f947f400 	ldr	x0, [x0, #4072]
 d10:	f9401fe3 	ldr	x3, [sp, #56]
 d14:	f9400002 	ldr	x2, [x0]
 d18:	eb020063 	subs	x3, x3, x2
 d1c:	d2800002 	mov	x2, #0x0                   	// #0
 d20:	54000040 	b.eq	d28 <virtual_to_physical+0xe0>  // b.none
 d24:	97ffff07 	bl	940 <__stack_chk_fail@plt>
 d28:	aa0103e0 	mov	x0, x1
 d2c:	a8c47bfd 	ldp	x29, x30, [sp], #64
 d30:	d65f03c0 	ret

0000000000000d34 <getPhysicalAddress>:
getPhysicalAddress():
 d34:	a9bd7bfd 	stp	x29, x30, [sp, #-48]!
 d38:	910003fd 	mov	x29, sp
 d3c:	f9000fe0 	str	x0, [sp, #24]
 d40:	f9400fe0 	ldr	x0, [sp, #24]
 d44:	f90013e0 	str	x0, [sp, #32]
 d48:	f94013e1 	ldr	x1, [sp, #32]
 d4c:	90000000 	adrp	x0, 0 <__abi_tag-0x254>
 d50:	91392000 	add	x0, x0, #0xe48
 d54:	97ffff1b 	bl	9c0 <printf@plt>
 d58:	f94013e0 	ldr	x0, [sp, #32]
 d5c:	97ffffbb 	bl	c48 <virtual_to_physical>
 d60:	f90017e0 	str	x0, [sp, #40]
 d64:	f94017e1 	ldr	x1, [sp, #40]
 d68:	90000000 	adrp	x0, 0 <__abi_tag-0x254>
 d6c:	91398000 	add	x0, x0, #0xe60
 d70:	97ffff14 	bl	9c0 <printf@plt>
 d74:	d503201f 	nop
 d78:	a8c37bfd 	ldp	x29, x30, [sp], #48
 d7c:	d65f03c0 	ret

Disassembly of section .fini:

0000000000000d80 <_fini>:
_fini():
 d80:	d503201f 	nop
 d84:	a9bf7bfd 	stp	x29, x30, [sp, #-16]!
 d88:	910003fd 	mov	x29, sp
 d8c:	a8c17bfd 	ldp	x29, x30, [sp], #16
 d90:	d65f03c0 	ret

Disassembly of section .rodata:

0000000000000d98 <_IO_stdin_used>:
 d98:	00020001 	.inst	0x00020001 ; undefined
 d9c:	00000000 	udf	#0
 da0:	7665642f 	.inst	0x7665642f ; undefined
 da4:	6d656d2f 	ldp	d15, d27, [x9, #-432]
	...
 db0:	6f727245 	fcmla	v5.8h, v18.8h, v18.h[1], #270
 db4:	706f2072 	adr	x18, df1c3 <__bss_end__+0xdc1ab>
 db8:	6e696e65 	umin	v5.8h, v19.8h, v9.8h
 dbc:	642f2067 	fmul	z7.h, z3.h, z7.h[1]
 dc0:	6d2f7665 	stp	d5, d29, [x19, #-272]
 dc4:	00006d65 	udf	#28005
 dc8:	70616d6d 	adr	x13, c3b77 <__bss_end__+0xc0b5f>
 dcc:	66202928 	.inst	0x66202928 ; undefined
 dd0:	656c6961 	fnmls	z1.h, p2/m, z11.h, z12.h
 dd4:	00000064 	udf	#100
 dd8:	656e6f44 	fnmls	z4.h, p3/m, z26.h, z14.h
 ddc:	00000021 	udf	#33
 de0:	73696854 	.inst	0x73696854 ; undefined
 de4:	20736920 	.inst	0x20736920 ; undefined
 de8:	65762061 	fmls	z1.h, p0/m, z3.h, z22.h
 dec:	64207972 	.inst	0x64207972 ; undefined
 df0:	796d6d75 	ldrh	w21, [x11, #5814]
 df4:	646f6320 	.inst	0x646f6320 ; undefined
 df8:	25203a65 	.inst	0x25203a65 ; undefined
 dfc:	64252064 	fmul	z4.h, z3.h, z5.h[0]
 e00:	0000000a 	udf	#10
 e04:	00000000 	udf	#0
 e08:	20727470 	.inst	0x20727470 ; undefined
 e0c:	756c6176 	.inst	0x756c6176 ; undefined
 e10:	30203a65 	adr	x5, 4155d <__bss_end__+0x3e545>
 e14:	38302578 	.inst	0x38302578 ; undefined
 e18:	00000a78 	udf	#2680
 e1c:	00000000 	udf	#0
 e20:	6f72702f 	fcmla	v15.8h, v1.8h, v18.h[1], #270
 e24:	65732f63 	fmls	z3.h, p3/m, z27.h, z19.h
 e28:	702f666c 	adr	x12, 5faf7 <__bss_end__+0x5cadf>
 e2c:	6d656761 	ldp	d1, d25, [x27, #-432]
 e30:	00007061 	udf	#28769
 e34:	00000000 	udf	#0
 e38:	6e65706f 	uabdl2	v15.4s, v3.8h, v5.8h
 e3c:	00000000 	udf	#0
 e40:	61657270 	.inst	0x61657270 ; undefined
 e44:	00000064 	udf	#100
 e48:	74726956 	.inst	0x74726956 ; undefined
 e4c:	206c6175 	.inst	0x206c6175 ; undefined
 e50:	72646441 	.inst	0x72646441 ; undefined
 e54:	25783020 	whilewr	p0.h, x1, x24
 e58:	0a783830 	bic	w16, w1, w24, lsr #14
 e5c:	00000000 	udf	#0
 e60:	73796850 	.inst	0x73796850 ; undefined
 e64:	6c616369 	ldnp	d9, d24, [x27, #-496]
 e68:	64644120 	bfdot	z0.s, z9.h, z4.h[0]
 e6c:	30203a72 	adr	x18, 415b9 <__bss_end__+0x3e5a1>
 e70:	38302578 	.inst	0x38302578 ; undefined
 e74:	Address 0x0000000000000e74 is out of bounds.


Disassembly of section .eh_frame_hdr:

0000000000000e78 <__GNU_EH_FRAME_HDR>:
__GNU_EH_FRAME_HDR():
 e78:	3b031b01 	.inst	0x3b031b01 ; undefined
 e7c:	0000004c 	udf	#76
 e80:	00000008 	udf	#8
 e84:	fffffb88 	.inst	0xfffffb88 ; undefined
 e88:	00000064 	udf	#100
 e8c:	fffffbd0 	.inst	0xfffffbd0 ; undefined
 e90:	00000078 	udf	#120
 e94:	fffffc00 	.inst	0xfffffc00 ; undefined
 e98:	0000008c 	udf	#140
 e9c:	fffffc3c 	.inst	0xfffffc3c ; undefined
 ea0:	000000a0 	udf	#160
 ea4:	fffffc84 	.inst	0xfffffc84 ; undefined
 ea8:	000000c4 	udf	#196
 eac:	fffffc88 	.inst	0xfffffc88 ; undefined
 eb0:	000000d8 	udf	#216
 eb4:	fffffdd0 	.inst	0xfffffdd0 ; undefined
 eb8:	000000f8 	udf	#248
 ebc:	fffffebc 	.inst	0xfffffebc ; undefined
 ec0:	00000118 	udf	#280

Disassembly of section .eh_frame:

0000000000000ec8 <__FRAME_END__-0xe8>:
 ec8:	00000010 	udf	#16
 ecc:	00000000 	udf	#0
 ed0:	00527a01 	.inst	0x00527a01 ; undefined
 ed4:	011e7804 	.inst	0x011e7804 ; undefined
 ed8:	001f0c1b 	.inst	0x001f0c1b ; undefined
 edc:	00000010 	udf	#16
 ee0:	00000018 	udf	#24
 ee4:	fffffb1c 	.inst	0xfffffb1c ; undefined
 ee8:	00000034 	udf	#52
 eec:	1e074100 	.inst	0x1e074100 ; undefined
 ef0:	00000010 	udf	#16
 ef4:	0000002c 	udf	#44
 ef8:	fffffb50 	.inst	0xfffffb50 ; undefined
 efc:	00000030 	udf	#48
 f00:	00000000 	udf	#0
 f04:	00000010 	udf	#16
 f08:	00000040 	udf	#64
 f0c:	fffffb6c 	.inst	0xfffffb6c ; undefined
 f10:	0000003c 	udf	#60
 f14:	00000000 	udf	#0
 f18:	00000020 	udf	#32
 f1c:	00000054 	udf	#84
 f20:	fffffb94 	.inst	0xfffffb94 ; undefined
 f24:	00000048 	udf	#72
 f28:	200e4100 	.inst	0x200e4100 ; undefined
 f2c:	039e049d 	.inst	0x039e049d ; undefined
 f30:	4e029342 	.inst	0x4e029342 ; undefined
 f34:	0ed3ddde 	.inst	0x0ed3ddde ; undefined
 f38:	00000000 	udf	#0
 f3c:	00000010 	udf	#16
 f40:	00000078 	udf	#120
 f44:	fffffbb8 	.inst	0xfffffbb8 ; undefined
 f48:	00000004 	udf	#4
 f4c:	00000000 	udf	#0
 f50:	0000001c 	udf	#28
 f54:	0000008c 	udf	#140
 f58:	fffffba8 	.inst	0xfffffba8 ; undefined
 f5c:	00000148 	udf	#328
 f60:	300e4100 	adr	x0, 1d781 <__bss_end__+0x1a769>
 f64:	059e069d 	mov	z29.s, p14/z, #52
 f68:	ddde5002 	.inst	0xddde5002 ; undefined
 f6c:	0000000e 	udf	#14
 f70:	0000001c 	udf	#28
 f74:	000000ac 	udf	#172
 f78:	fffffcd0 	.inst	0xfffffcd0 ; undefined
 f7c:	000000ec 	udf	#236
 f80:	400e4100 	.inst	0x400e4100 ; undefined
 f84:	079e089d 	.inst	0x079e089d ; undefined
 f88:	0eddde79 	.inst	0x0eddde79 ; undefined
 f8c:	00000000 	udf	#0
 f90:	0000001c 	udf	#28
 f94:	000000cc 	udf	#204
 f98:	fffffd9c 	.inst	0xfffffd9c ; undefined
 f9c:	0000004c 	udf	#76
 fa0:	300e4100 	adr	x0, 1d7c1 <__bss_end__+0x1a7a9>
 fa4:	059e069d 	mov	z29.s, p14/z, #52
 fa8:	0eddde51 	.inst	0x0eddde51 ; undefined
 fac:	00000000 	udf	#0

0000000000000fb0 <__FRAME_END__>:
 fb0:	00000000 	udf	#0

Disassembly of section .init_array:

0000000000002d20 <__frame_dummy_init_array_entry>:
    2d20:	00000afc 	udf	#2812
    2d24:	00000000 	udf	#0

Disassembly of section .fini_array:

0000000000002d28 <__do_global_dtors_aux_fini_array_entry>:
    2d28:	00000ab4 	udf	#2740
    2d2c:	00000000 	udf	#0

Disassembly of section .dynamic:

0000000000002d30 <.dynamic>:
    2d30:	00000001 	udf	#1
    2d34:	00000000 	udf	#0
    2d38:	00000080 	udf	#128
    2d3c:	00000000 	udf	#0
    2d40:	00000001 	udf	#1
    2d44:	00000000 	udf	#0
    2d48:	0000008a 	udf	#138
    2d4c:	00000000 	udf	#0
    2d50:	0000000c 	udf	#12
    2d54:	00000000 	udf	#0
    2d58:	000008b8 	udf	#2232
    2d5c:	00000000 	udf	#0
    2d60:	0000000d 	udf	#13
    2d64:	00000000 	udf	#0
    2d68:	00000d80 	udf	#3456
    2d6c:	00000000 	udf	#0
    2d70:	00000019 	udf	#25
    2d74:	00000000 	udf	#0
    2d78:	00002d20 	udf	#11552
    2d7c:	00000000 	udf	#0
    2d80:	0000001b 	udf	#27
    2d84:	00000000 	udf	#0
    2d88:	00000008 	udf	#8
    2d8c:	00000000 	udf	#0
    2d90:	0000001a 	udf	#26
    2d94:	00000000 	udf	#0
    2d98:	00002d28 	udf	#11560
    2d9c:	00000000 	udf	#0
    2da0:	0000001c 	udf	#28
    2da4:	00000000 	udf	#0
    2da8:	00000008 	udf	#8
    2dac:	00000000 	udf	#0
    2db0:	00000004 	udf	#4
    2db4:	00000000 	udf	#0
    2db8:	00000278 	udf	#632
    2dbc:	00000000 	udf	#0
    2dc0:	6ffffef5 	.inst	0x6ffffef5 ; undefined
    2dc4:	00000000 	udf	#0
    2dc8:	00000318 	udf	#792
    2dcc:	00000000 	udf	#0
    2dd0:	00000005 	udf	#5
    2dd4:	00000000 	udf	#0
    2dd8:	00000518 	udf	#1304
    2ddc:	00000000 	udf	#0
    2de0:	00000006 	udf	#6
    2de4:	00000000 	udf	#0
    2de8:	00000338 	udf	#824
    2dec:	00000000 	udf	#0
    2df0:	0000000a 	udf	#10
    2df4:	00000000 	udf	#0
    2df8:	000000fb 	udf	#251
    2dfc:	00000000 	udf	#0
    2e00:	0000000b 	udf	#11
    2e04:	00000000 	udf	#0
    2e08:	00000018 	udf	#24
    2e0c:	00000000 	udf	#0
    2e10:	00000015 	udf	#21
	...
    2e20:	00000003 	udf	#3
    2e24:	00000000 	udf	#0
    2e28:	00002f40 	udf	#12096
    2e2c:	00000000 	udf	#0
    2e30:	00000002 	udf	#2
    2e34:	00000000 	udf	#0
    2e38:	00000150 	udf	#336
    2e3c:	00000000 	udf	#0
    2e40:	00000014 	udf	#20
    2e44:	00000000 	udf	#0
    2e48:	00000007 	udf	#7
    2e4c:	00000000 	udf	#0
    2e50:	00000017 	udf	#23
    2e54:	00000000 	udf	#0
    2e58:	00000768 	udf	#1896
    2e5c:	00000000 	udf	#0
    2e60:	00000007 	udf	#7
    2e64:	00000000 	udf	#0
    2e68:	00000690 	udf	#1680
    2e6c:	00000000 	udf	#0
    2e70:	00000008 	udf	#8
    2e74:	00000000 	udf	#0
    2e78:	000000d8 	udf	#216
    2e7c:	00000000 	udf	#0
    2e80:	00000009 	udf	#9
    2e84:	00000000 	udf	#0
    2e88:	00000018 	udf	#24
    2e8c:	00000000 	udf	#0
    2e90:	00000018 	udf	#24
	...
    2ea0:	6ffffffb 	.inst	0x6ffffffb ; undefined
    2ea4:	00000000 	udf	#0
    2ea8:	08000001 	stxrb	w0, w1, [x0]
    2eac:	00000000 	udf	#0
    2eb0:	6ffffffe 	.inst	0x6ffffffe ; undefined
    2eb4:	00000000 	udf	#0
    2eb8:	00000640 	udf	#1600
    2ebc:	00000000 	udf	#0
    2ec0:	6fffffff 	.inst	0x6fffffff ; undefined
    2ec4:	00000000 	udf	#0
    2ec8:	00000002 	udf	#2
    2ecc:	00000000 	udf	#0
    2ed0:	6ffffff0 	.inst	0x6ffffff0 ; undefined
    2ed4:	00000000 	udf	#0
    2ed8:	00000614 	udf	#1556
    2edc:	00000000 	udf	#0
    2ee0:	6ffffff9 	.inst	0x6ffffff9 ; undefined
    2ee4:	00000000 	udf	#0
    2ee8:	00000004 	udf	#4
	...

Disassembly of section .got:

0000000000002f40 <.got>:
	...
    2f58:	000008d0 	udf	#2256
    2f5c:	00000000 	udf	#0
    2f60:	000008d0 	udf	#2256
    2f64:	00000000 	udf	#0
    2f68:	000008d0 	udf	#2256
    2f6c:	00000000 	udf	#0
    2f70:	000008d0 	udf	#2256
    2f74:	00000000 	udf	#0
    2f78:	000008d0 	udf	#2256
    2f7c:	00000000 	udf	#0
    2f80:	000008d0 	udf	#2256
    2f84:	00000000 	udf	#0
    2f88:	000008d0 	udf	#2256
    2f8c:	00000000 	udf	#0
    2f90:	000008d0 	udf	#2256
    2f94:	00000000 	udf	#0
    2f98:	000008d0 	udf	#2256
    2f9c:	00000000 	udf	#0
    2fa0:	000008d0 	udf	#2256
    2fa4:	00000000 	udf	#0
    2fa8:	000008d0 	udf	#2256
    2fac:	00000000 	udf	#0
    2fb0:	000008d0 	udf	#2256
    2fb4:	00000000 	udf	#0
    2fb8:	000008d0 	udf	#2256
    2fbc:	00000000 	udf	#0
    2fc0:	000008d0 	udf	#2256
    2fc4:	00000000 	udf	#0
    2fc8:	00002d30 	udf	#11568
	...
    2ff0:	00000b00 	udf	#2816
	...

Disassembly of section .data:

0000000000003000 <__data_start>:
	...

0000000000003008 <__dso_handle>:
data_start():
    3008:	00003008 	udf	#12296
    300c:	00000000 	udf	#0

Disassembly of section .bss:

0000000000003010 <completed.0>:
	...

Disassembly of section .comment:

0000000000000000 <.comment>:
   0:	3a434347 	ccmn	w26, w3, #0x7, mi  // mi = first
   4:	75422820 	.inst	0x75422820 ; undefined
   8:	72646c69 	.inst	0x72646c69 ; undefined
   c:	20746f6f 	.inst	0x20746f6f ; undefined
  10:	32323032 	orr	w18, w1, #0x7ffc000
  14:	2931312e 	stp	w14, w12, [x9, #-120]
  18:	2e313120 	usubw	v0.8h, v9.8h, v17.8b
  1c:	00302e33 	.inst	0x00302e33 ; NYI
