
app_test_data:     file format elf64-littleaarch64


Disassembly of section .init:

0000000000000810 <_init>:
_init():
 810:	d503201f 	nop
 814:	a9bf7bfd 	stp	x29, x30, [sp, #-16]!
 818:	910003fd 	mov	x29, sp
 81c:	94000056 	bl	974 <call_weak_fn>
 820:	a8c17bfd 	ldp	x29, x30, [sp], #16
 824:	d65f03c0 	ret

Disassembly of section .plt:

0000000000000830 <.plt>:
 830:	a9bf7bf0 	stp	x16, x30, [sp, #-16]!
 834:	d0000010 	adrp	x16, 2000 <__FRAME_END__+0x11c8>
 838:	f947b211 	ldr	x17, [x16, #3936]
 83c:	913d8210 	add	x16, x16, #0xf60
 840:	d61f0220 	br	x17
 844:	d503201f 	nop
 848:	d503201f 	nop
 84c:	d503201f 	nop

0000000000000850 <__libc_start_main@plt>:
 850:	d0000010 	adrp	x16, 2000 <__FRAME_END__+0x11c8>
 854:	f947b611 	ldr	x17, [x16, #3944]
 858:	913da210 	add	x16, x16, #0xf68
 85c:	d61f0220 	br	x17

0000000000000860 <perror@plt>:
 860:	d0000010 	adrp	x16, 2000 <__FRAME_END__+0x11c8>
 864:	f947ba11 	ldr	x17, [x16, #3952]
 868:	913dc210 	add	x16, x16, #0xf70
 86c:	d61f0220 	br	x17

0000000000000870 <__cxa_finalize@plt>:
 870:	d0000010 	adrp	x16, 2000 <__FRAME_END__+0x11c8>
 874:	f947be11 	ldr	x17, [x16, #3960]
 878:	913de210 	add	x16, x16, #0xf78
 87c:	d61f0220 	br	x17

0000000000000880 <open@plt>:
 880:	d0000010 	adrp	x16, 2000 <__FRAME_END__+0x11c8>
 884:	f947c211 	ldr	x17, [x16, #3968]
 888:	913e0210 	add	x16, x16, #0xf80
 88c:	d61f0220 	br	x17

0000000000000890 <aligned_alloc@plt>:
 890:	d0000010 	adrp	x16, 2000 <__FRAME_END__+0x11c8>
 894:	f947c611 	ldr	x17, [x16, #3976]
 898:	913e2210 	add	x16, x16, #0xf88
 89c:	d61f0220 	br	x17

00000000000008a0 <__stack_chk_fail@plt>:
 8a0:	d0000010 	adrp	x16, 2000 <__FRAME_END__+0x11c8>
 8a4:	f947ca11 	ldr	x17, [x16, #3984]
 8a8:	913e4210 	add	x16, x16, #0xf90
 8ac:	d61f0220 	br	x17

00000000000008b0 <close@plt>:
 8b0:	d0000010 	adrp	x16, 2000 <__FRAME_END__+0x11c8>
 8b4:	f947ce11 	ldr	x17, [x16, #3992]
 8b8:	913e6210 	add	x16, x16, #0xf98
 8bc:	d61f0220 	br	x17

00000000000008c0 <__gmon_start__@plt>:
 8c0:	d0000010 	adrp	x16, 2000 <__FRAME_END__+0x11c8>
 8c4:	f947d211 	ldr	x17, [x16, #4000]
 8c8:	913e8210 	add	x16, x16, #0xfa0
 8cc:	d61f0220 	br	x17

00000000000008d0 <abort@plt>:
 8d0:	d0000010 	adrp	x16, 2000 <__FRAME_END__+0x11c8>
 8d4:	f947d611 	ldr	x17, [x16, #4008]
 8d8:	913ea210 	add	x16, x16, #0xfa8
 8dc:	d61f0220 	br	x17

00000000000008e0 <free@plt>:
 8e0:	d0000010 	adrp	x16, 2000 <__FRAME_END__+0x11c8>
 8e4:	f947da11 	ldr	x17, [x16, #4016]
 8e8:	913ec210 	add	x16, x16, #0xfb0
 8ec:	d61f0220 	br	x17

00000000000008f0 <pread@plt>:
 8f0:	d0000010 	adrp	x16, 2000 <__FRAME_END__+0x11c8>
 8f4:	f947de11 	ldr	x17, [x16, #4024]
 8f8:	913ee210 	add	x16, x16, #0xfb8
 8fc:	d61f0220 	br	x17

0000000000000900 <printf@plt>:
 900:	d0000010 	adrp	x16, 2000 <__FRAME_END__+0x11c8>
 904:	f947e211 	ldr	x17, [x16, #4032]
 908:	913f0210 	add	x16, x16, #0xfc0
 90c:	d61f0220 	br	x17

Disassembly of section .text:

0000000000000940 <_start>:
_start():
 940:	d503201f 	nop
 944:	d280001d 	mov	x29, #0x0                   	// #0
 948:	d280001e 	mov	x30, #0x0                   	// #0
 94c:	aa0003e5 	mov	x5, x0
 950:	f94003e1 	ldr	x1, [sp]
 954:	910023e2 	add	x2, sp, #0x8
 958:	910003e6 	mov	x6, sp
 95c:	d0000000 	adrp	x0, 2000 <__FRAME_END__+0x11c8>
 960:	f947f800 	ldr	x0, [x0, #4080]
 964:	d2800003 	mov	x3, #0x0                   	// #0
 968:	d2800004 	mov	x4, #0x0                   	// #0
 96c:	97ffffb9 	bl	850 <__libc_start_main@plt>
 970:	97ffffd8 	bl	8d0 <abort@plt>

0000000000000974 <call_weak_fn>:
call_weak_fn():
 974:	d0000000 	adrp	x0, 2000 <__FRAME_END__+0x11c8>
 978:	f947f000 	ldr	x0, [x0, #4064]
 97c:	b4000040 	cbz	x0, 984 <call_weak_fn+0x10>
 980:	17ffffd0 	b	8c0 <__gmon_start__@plt>
 984:	d65f03c0 	ret

0000000000000988 <deregister_tm_clones>:
deregister_tm_clones():
 988:	f0000000 	adrp	x0, 3000 <__data_start>
 98c:	91004000 	add	x0, x0, #0x10
 990:	f0000001 	adrp	x1, 3000 <__data_start>
 994:	91004021 	add	x1, x1, #0x10
 998:	eb00003f 	cmp	x1, x0
 99c:	540000c0 	b.eq	9b4 <deregister_tm_clones+0x2c>  // b.none
 9a0:	d0000001 	adrp	x1, 2000 <__FRAME_END__+0x11c8>
 9a4:	f947e821 	ldr	x1, [x1, #4048]
 9a8:	b4000061 	cbz	x1, 9b4 <deregister_tm_clones+0x2c>
 9ac:	aa0103f0 	mov	x16, x1
 9b0:	d61f0200 	br	x16
 9b4:	d65f03c0 	ret

00000000000009b8 <register_tm_clones>:
register_tm_clones():
 9b8:	f0000000 	adrp	x0, 3000 <__data_start>
 9bc:	91004000 	add	x0, x0, #0x10
 9c0:	f0000001 	adrp	x1, 3000 <__data_start>
 9c4:	91004021 	add	x1, x1, #0x10
 9c8:	cb000021 	sub	x1, x1, x0
 9cc:	d2800042 	mov	x2, #0x2                   	// #2
 9d0:	9343fc21 	asr	x1, x1, #3
 9d4:	9ac20c21 	sdiv	x1, x1, x2
 9d8:	b40000c1 	cbz	x1, 9f0 <register_tm_clones+0x38>
 9dc:	d0000002 	adrp	x2, 2000 <__FRAME_END__+0x11c8>
 9e0:	f947fc42 	ldr	x2, [x2, #4088]
 9e4:	b4000062 	cbz	x2, 9f0 <register_tm_clones+0x38>
 9e8:	aa0203f0 	mov	x16, x2
 9ec:	d61f0200 	br	x16
 9f0:	d65f03c0 	ret

00000000000009f4 <__do_global_dtors_aux>:
__do_global_dtors_aux():
 9f4:	a9be7bfd 	stp	x29, x30, [sp, #-32]!
 9f8:	910003fd 	mov	x29, sp
 9fc:	f9000bf3 	str	x19, [sp, #16]
 a00:	f0000013 	adrp	x19, 3000 <__data_start>
 a04:	39404260 	ldrb	w0, [x19, #16]
 a08:	35000140 	cbnz	w0, a30 <__do_global_dtors_aux+0x3c>
 a0c:	d0000000 	adrp	x0, 2000 <__FRAME_END__+0x11c8>
 a10:	f947ec00 	ldr	x0, [x0, #4056]
 a14:	b4000080 	cbz	x0, a24 <__do_global_dtors_aux+0x30>
 a18:	f0000000 	adrp	x0, 3000 <__data_start>
 a1c:	f9400400 	ldr	x0, [x0, #8]
 a20:	97ffff94 	bl	870 <__cxa_finalize@plt>
 a24:	97ffffd9 	bl	988 <deregister_tm_clones>
 a28:	52800020 	mov	w0, #0x1                   	// #1
 a2c:	39004260 	strb	w0, [x19, #16]
 a30:	f9400bf3 	ldr	x19, [sp, #16]
 a34:	a8c27bfd 	ldp	x29, x30, [sp], #32
 a38:	d65f03c0 	ret

0000000000000a3c <frame_dummy>:
frame_dummy():
 a3c:	17ffffdf 	b	9b8 <register_tm_clones>

0000000000000a40 <main>:
main():
 a40:	a9bd7bfd 	stp	x29, x30, [sp, #-48]!
 a44:	910003fd 	mov	x29, sp
 a48:	b9001fe0 	str	w0, [sp, #28]
 a4c:	f9000be1 	str	x1, [sp, #16]
 a50:	d2a00041 	mov	x1, #0x20000               	// #131072
 a54:	d2800800 	mov	x0, #0x40                  	// #64
 a58:	97ffff8e 	bl	890 <aligned_alloc@plt>
 a5c:	aa0003e1 	mov	x1, x0
 a60:	f0000000 	adrp	x0, 3000 <__data_start>
 a64:	91006000 	add	x0, x0, #0x18
 a68:	f9000001 	str	x1, [x0]
 a6c:	b9002fff 	str	wzr, [sp, #44]
 a70:	14000022 	b	af8 <main+0xb8>
 a74:	b9402fe1 	ldr	w1, [sp, #44]
 a78:	529fe020 	mov	w0, #0xff01                	// #65281
 a7c:	72bfe000 	movk	w0, #0xff00, lsl #16
 a80:	0b000022 	add	w2, w1, w0
 a84:	f0000000 	adrp	x0, 3000 <__data_start>
 a88:	91006000 	add	x0, x0, #0x18
 a8c:	f9400001 	ldr	x1, [x0]
 a90:	b9802fe0 	ldrsw	x0, [sp, #44]
 a94:	d37ef400 	lsl	x0, x0, #2
 a98:	8b000020 	add	x0, x1, x0
 a9c:	2a0203e1 	mov	w1, w2
 aa0:	b9000001 	str	w1, [x0]
 aa4:	f0000000 	adrp	x0, 3000 <__data_start>
 aa8:	91006000 	add	x0, x0, #0x18
 aac:	f9400001 	ldr	x1, [x0]
 ab0:	b9802fe0 	ldrsw	x0, [sp, #44]
 ab4:	d37ef400 	lsl	x0, x0, #2
 ab8:	8b000022 	add	x2, x1, x0
 abc:	f0000000 	adrp	x0, 3000 <__data_start>
 ac0:	91006000 	add	x0, x0, #0x18
 ac4:	f9400001 	ldr	x1, [x0]
 ac8:	b9802fe0 	ldrsw	x0, [sp, #44]
 acc:	d37ef400 	lsl	x0, x0, #2
 ad0:	8b000020 	add	x0, x1, x0
 ad4:	b9400000 	ldr	w0, [x0]
 ad8:	2a0003e3 	mov	w3, w0
 adc:	b9402fe1 	ldr	w1, [sp, #44]
 ae0:	90000000 	adrp	x0, 0 <__abi_tag-0x254>
 ae4:	91322000 	add	x0, x0, #0xc88
 ae8:	97ffff86 	bl	900 <printf@plt>
 aec:	b9402fe0 	ldr	w0, [sp, #44]
 af0:	11000400 	add	w0, w0, #0x1
 af4:	b9002fe0 	str	w0, [sp, #44]
 af8:	b9402fe1 	ldr	w1, [sp, #44]
 afc:	528fffe0 	mov	w0, #0x7fff                	// #32767
 b00:	6b00003f 	cmp	w1, w0
 b04:	54fffb8d 	b.le	a74 <main+0x34>
 b08:	f0000000 	adrp	x0, 3000 <__data_start>
 b0c:	91006000 	add	x0, x0, #0x18
 b10:	f9400000 	ldr	x0, [x0]
 b14:	94000043 	bl	c20 <getPhysicalAddress>
 b18:	f0000000 	adrp	x0, 3000 <__data_start>
 b1c:	91006000 	add	x0, x0, #0x18
 b20:	f9400000 	ldr	x0, [x0]
 b24:	97ffff6f 	bl	8e0 <free@plt>
 b28:	52800000 	mov	w0, #0x0                   	// #0
 b2c:	a8c37bfd 	ldp	x29, x30, [sp], #48
 b30:	d65f03c0 	ret

0000000000000b34 <virtual_to_physical>:
virtual_to_physical():
 b34:	a9bc7bfd 	stp	x29, x30, [sp, #-64]!
 b38:	910003fd 	mov	x29, sp
 b3c:	f9000fe0 	str	x0, [sp, #24]
 b40:	d0000000 	adrp	x0, 2000 <__FRAME_END__+0x11c8>
 b44:	f947f400 	ldr	x0, [x0, #4072]
 b48:	f9400001 	ldr	x1, [x0]
 b4c:	f9001fe1 	str	x1, [sp, #56]
 b50:	d2800001 	mov	x1, #0x0                   	// #0
 b54:	52800001 	mov	w1, #0x0                   	// #0
 b58:	90000000 	adrp	x0, 0 <__abi_tag-0x254>
 b5c:	9132a000 	add	x0, x0, #0xca8
 b60:	97ffff48 	bl	880 <open@plt>
 b64:	b90027e0 	str	w0, [sp, #36]
 b68:	b94027e0 	ldr	w0, [sp, #36]
 b6c:	3100041f 	cmn	w0, #0x1
 b70:	540000c1 	b.ne	b88 <virtual_to_physical+0x54>  // b.any
 b74:	90000000 	adrp	x0, 0 <__abi_tag-0x254>
 b78:	91330000 	add	x0, x0, #0xcc0
 b7c:	97ffff39 	bl	860 <perror@plt>
 b80:	d2800000 	mov	x0, #0x0                   	// #0
 b84:	1400001b 	b	bf0 <virtual_to_physical+0xbc>
 b88:	f9400fe0 	ldr	x0, [sp, #24]
 b8c:	d34cfc00 	lsr	x0, x0, #12
 b90:	d37df000 	lsl	x0, x0, #3
 b94:	f9001be0 	str	x0, [sp, #48]
 b98:	9100a3e0 	add	x0, sp, #0x28
 b9c:	f9401be3 	ldr	x3, [sp, #48]
 ba0:	d2800102 	mov	x2, #0x8                   	// #8
 ba4:	aa0003e1 	mov	x1, x0
 ba8:	b94027e0 	ldr	w0, [sp, #36]
 bac:	97ffff51 	bl	8f0 <pread@plt>
 bb0:	f100201f 	cmp	x0, #0x8
 bb4:	54000100 	b.eq	bd4 <virtual_to_physical+0xa0>  // b.none
 bb8:	90000000 	adrp	x0, 0 <__abi_tag-0x254>
 bbc:	91332000 	add	x0, x0, #0xcc8
 bc0:	97ffff28 	bl	860 <perror@plt>
 bc4:	b94027e0 	ldr	w0, [sp, #36]
 bc8:	97ffff3a 	bl	8b0 <close@plt>
 bcc:	d2800000 	mov	x0, #0x0                   	// #0
 bd0:	14000008 	b	bf0 <virtual_to_physical+0xbc>
 bd4:	b94027e0 	ldr	w0, [sp, #36]
 bd8:	97ffff36 	bl	8b0 <close@plt>
 bdc:	f94017e0 	ldr	x0, [sp, #40]
 be0:	d374cc01 	lsl	x1, x0, #12
 be4:	f9400fe0 	ldr	x0, [sp, #24]
 be8:	92402c00 	and	x0, x0, #0xfff
 bec:	aa000020 	orr	x0, x1, x0
 bf0:	aa0003e1 	mov	x1, x0
 bf4:	d0000000 	adrp	x0, 2000 <__FRAME_END__+0x11c8>
 bf8:	f947f400 	ldr	x0, [x0, #4072]
 bfc:	f9401fe3 	ldr	x3, [sp, #56]
 c00:	f9400002 	ldr	x2, [x0]
 c04:	eb020063 	subs	x3, x3, x2
 c08:	d2800002 	mov	x2, #0x0                   	// #0
 c0c:	54000040 	b.eq	c14 <virtual_to_physical+0xe0>  // b.none
 c10:	97ffff24 	bl	8a0 <__stack_chk_fail@plt>
 c14:	aa0103e0 	mov	x0, x1
 c18:	a8c47bfd 	ldp	x29, x30, [sp], #64
 c1c:	d65f03c0 	ret

0000000000000c20 <getPhysicalAddress>:
getPhysicalAddress():
 c20:	a9bd7bfd 	stp	x29, x30, [sp, #-48]!
 c24:	910003fd 	mov	x29, sp
 c28:	f9000fe0 	str	x0, [sp, #24]
 c2c:	f9400fe0 	ldr	x0, [sp, #24]
 c30:	f90013e0 	str	x0, [sp, #32]
 c34:	f94013e1 	ldr	x1, [sp, #32]
 c38:	90000000 	adrp	x0, 0 <__abi_tag-0x254>
 c3c:	91334000 	add	x0, x0, #0xcd0
 c40:	97ffff30 	bl	900 <printf@plt>
 c44:	f94013e0 	ldr	x0, [sp, #32]
 c48:	97ffffbb 	bl	b34 <virtual_to_physical>
 c4c:	f90017e0 	str	x0, [sp, #40]
 c50:	f94017e1 	ldr	x1, [sp, #40]
 c54:	90000000 	adrp	x0, 0 <__abi_tag-0x254>
 c58:	9133a000 	add	x0, x0, #0xce8
 c5c:	97ffff29 	bl	900 <printf@plt>
 c60:	d503201f 	nop
 c64:	a8c37bfd 	ldp	x29, x30, [sp], #48
 c68:	d65f03c0 	ret

Disassembly of section .fini:

0000000000000c6c <_fini>:
_fini():
 c6c:	d503201f 	nop
 c70:	a9bf7bfd 	stp	x29, x30, [sp, #-16]!
 c74:	910003fd 	mov	x29, sp
 c78:	a8c17bfd 	ldp	x29, x30, [sp], #16
 c7c:	d65f03c0 	ret
