
latency:     file format elf64-littleaarch64


Disassembly of section .init:

0000000000001b20 <_init>:
    1b20:	d503201f 	nop
    1b24:	a9bf7bfd 	stp	x29, x30, [sp, #-16]!
    1b28:	910003fd 	mov	x29, sp
    1b2c:	940002c2 	bl	2634 <call_weak_fn>
    1b30:	a8c17bfd 	ldp	x29, x30, [sp], #16
    1b34:	d65f03c0 	ret

Disassembly of section .plt:

0000000000001b40 <.plt>:
    1b40:	a9bf7bf0 	stp	x16, x30, [sp, #-16]!
    1b44:	d0000050 	adrp	x16, b000 <__FRAME_END__+0x147c>
    1b48:	f9469611 	ldr	x17, [x16, #3368]
    1b4c:	9134a210 	add	x16, x16, #0xd28
    1b50:	d61f0220 	br	x17
    1b54:	d503201f 	nop
    1b58:	d503201f 	nop
    1b5c:	d503201f 	nop

0000000000001b60 <memcpy@plt>:
    1b60:	d0000050 	adrp	x16, b000 <__FRAME_END__+0x147c>
    1b64:	f9469a11 	ldr	x17, [x16, #3376]
    1b68:	9134c210 	add	x16, x16, #0xd30
    1b6c:	d61f0220 	br	x17

0000000000001b70 <timer_settime@plt>:
    1b70:	d0000050 	adrp	x16, b000 <__FRAME_END__+0x147c>
    1b74:	f9469e11 	ldr	x17, [x16, #3384]
    1b78:	9134e210 	add	x16, x16, #0xd38
    1b7c:	d61f0220 	br	x17

0000000000001b80 <strtok@plt>:
    1b80:	d0000050 	adrp	x16, b000 <__FRAME_END__+0x147c>
    1b84:	f946a211 	ldr	x17, [x16, #3392]
    1b88:	91350210 	add	x16, x16, #0xd40
    1b8c:	d61f0220 	br	x17

0000000000001b90 <strtoul@plt>:
    1b90:	d0000050 	adrp	x16, b000 <__FRAME_END__+0x147c>
    1b94:	f946a611 	ldr	x17, [x16, #3400]
    1b98:	91352210 	add	x16, x16, #0xd48
    1b9c:	d61f0220 	br	x17

0000000000001ba0 <strlen@plt>:
    1ba0:	d0000050 	adrp	x16, b000 <__FRAME_END__+0x147c>
    1ba4:	f946aa11 	ldr	x17, [x16, #3408]
    1ba8:	91354210 	add	x16, x16, #0xd50
    1bac:	d61f0220 	br	x17

0000000000001bb0 <fputs@plt>:
    1bb0:	d0000050 	adrp	x16, b000 <__FRAME_END__+0x147c>
    1bb4:	f946ae11 	ldr	x17, [x16, #3416]
    1bb8:	91356210 	add	x16, x16, #0xd58
    1bbc:	d61f0220 	br	x17

0000000000001bc0 <exit@plt>:
    1bc0:	d0000050 	adrp	x16, b000 <__FRAME_END__+0x147c>
    1bc4:	f946b211 	ldr	x17, [x16, #3424]
    1bc8:	91358210 	add	x16, x16, #0xd60
    1bcc:	d61f0220 	br	x17

0000000000001bd0 <pthread_attr_setaffinity_np@plt>:
    1bd0:	d0000050 	adrp	x16, b000 <__FRAME_END__+0x147c>
    1bd4:	f946b611 	ldr	x17, [x16, #3432]
    1bd8:	9135a210 	add	x16, x16, #0xd68
    1bdc:	d61f0220 	br	x17

0000000000001be0 <__libc_start_main@plt>:
    1be0:	d0000050 	adrp	x16, b000 <__FRAME_END__+0x147c>
    1be4:	f946ba11 	ldr	x17, [x16, #3440]
    1be8:	9135c210 	add	x16, x16, #0xd70
    1bec:	d61f0220 	br	x17

0000000000001bf0 <perror@plt>:
    1bf0:	d0000050 	adrp	x16, b000 <__FRAME_END__+0x147c>
    1bf4:	f946be11 	ldr	x17, [x16, #3448]
    1bf8:	9135e210 	add	x16, x16, #0xd78
    1bfc:	d61f0220 	br	x17

0000000000001c00 <sbrk@plt>:
    1c00:	d0000050 	adrp	x16, b000 <__FRAME_END__+0x147c>
    1c04:	f946c211 	ldr	x17, [x16, #3456]
    1c08:	91360210 	add	x16, x16, #0xd80
    1c0c:	d61f0220 	br	x17

0000000000001c10 <strtod@plt>:
    1c10:	d0000050 	adrp	x16, b000 <__FRAME_END__+0x147c>
    1c14:	f946c611 	ldr	x17, [x16, #3464]
    1c18:	91362210 	add	x16, x16, #0xd88
    1c1c:	d61f0220 	br	x17

0000000000001c20 <sem_wait@plt>:
    1c20:	d0000050 	adrp	x16, b000 <__FRAME_END__+0x147c>
    1c24:	f946ca11 	ldr	x17, [x16, #3472]
    1c28:	91364210 	add	x16, x16, #0xd90
    1c2c:	d61f0220 	br	x17

0000000000001c30 <__cxa_finalize@plt>:
    1c30:	d0000050 	adrp	x16, b000 <__FRAME_END__+0x147c>
    1c34:	f946ce11 	ldr	x17, [x16, #3480]
    1c38:	91366210 	add	x16, x16, #0xd98
    1c3c:	d61f0220 	br	x17

0000000000001c40 <argp_parse@plt>:
    1c40:	d0000050 	adrp	x16, b000 <__FRAME_END__+0x147c>
    1c44:	f946d211 	ldr	x17, [x16, #3488]
    1c48:	91368210 	add	x16, x16, #0xda0
    1c4c:	d61f0220 	br	x17

0000000000001c50 <pthread_attr_init@plt>:
    1c50:	d0000050 	adrp	x16, b000 <__FRAME_END__+0x147c>
    1c54:	f946d611 	ldr	x17, [x16, #3496]
    1c58:	9136a210 	add	x16, x16, #0xda8
    1c5c:	d61f0220 	br	x17

0000000000001c60 <fputc@plt>:
    1c60:	d0000050 	adrp	x16, b000 <__FRAME_END__+0x147c>
    1c64:	f946da11 	ldr	x17, [x16, #3504]
    1c68:	9136c210 	add	x16, x16, #0xdb0
    1c6c:	d61f0220 	br	x17

0000000000001c70 <clock_gettime@plt>:
    1c70:	d0000050 	adrp	x16, b000 <__FRAME_END__+0x147c>
    1c74:	f946de11 	ldr	x17, [x16, #3512]
    1c78:	9136e210 	add	x16, x16, #0xdb8
    1c7c:	d61f0220 	br	x17

0000000000001c80 <snprintf@plt>:
    1c80:	d0000050 	adrp	x16, b000 <__FRAME_END__+0x147c>
    1c84:	f946e211 	ldr	x17, [x16, #3520]
    1c88:	91370210 	add	x16, x16, #0xdc0
    1c8c:	d61f0220 	br	x17

0000000000001c90 <fetestexcept@plt>:
    1c90:	d0000050 	adrp	x16, b000 <__FRAME_END__+0x147c>
    1c94:	f946e611 	ldr	x17, [x16, #3528]
    1c98:	91372210 	add	x16, x16, #0xdc8
    1c9c:	d61f0220 	br	x17

0000000000001ca0 <localtime@plt>:
    1ca0:	d0000050 	adrp	x16, b000 <__FRAME_END__+0x147c>
    1ca4:	f946ea11 	ldr	x17, [x16, #3536]
    1ca8:	91374210 	add	x16, x16, #0xdd0
    1cac:	d61f0220 	br	x17

0000000000001cb0 <fclose@plt>:
    1cb0:	d0000050 	adrp	x16, b000 <__FRAME_END__+0x147c>
    1cb4:	f946ee11 	ldr	x17, [x16, #3544]
    1cb8:	91376210 	add	x16, x16, #0xdd8
    1cbc:	d61f0220 	br	x17

0000000000001cc0 <fopen@plt>:
    1cc0:	d0000050 	adrp	x16, b000 <__FRAME_END__+0x147c>
    1cc4:	f946f211 	ldr	x17, [x16, #3552]
    1cc8:	91378210 	add	x16, x16, #0xde0
    1ccc:	d61f0220 	br	x17

0000000000001cd0 <timer_create@plt>:
    1cd0:	d0000050 	adrp	x16, b000 <__FRAME_END__+0x147c>
    1cd4:	f946f611 	ldr	x17, [x16, #3560]
    1cd8:	9137a210 	add	x16, x16, #0xde8
    1cdc:	d61f0220 	br	x17

0000000000001ce0 <time@plt>:
    1ce0:	d0000050 	adrp	x16, b000 <__FRAME_END__+0x147c>
    1ce4:	f946fa11 	ldr	x17, [x16, #3568]
    1ce8:	9137c210 	add	x16, x16, #0xdf0
    1cec:	d61f0220 	br	x17

0000000000001cf0 <malloc@plt>:
    1cf0:	d0000050 	adrp	x16, b000 <__FRAME_END__+0x147c>
    1cf4:	f946fe11 	ldr	x17, [x16, #3576]
    1cf8:	9137e210 	add	x16, x16, #0xdf8
    1cfc:	d61f0220 	br	x17

0000000000001d00 <pthread_attr_setinheritsched@plt>:
    1d00:	d0000050 	adrp	x16, b000 <__FRAME_END__+0x147c>
    1d04:	f9470211 	ldr	x17, [x16, #3584]
    1d08:	91380210 	add	x16, x16, #0xe00
    1d0c:	d61f0220 	br	x17

0000000000001d10 <sigemptyset@plt>:
    1d10:	d0000050 	adrp	x16, b000 <__FRAME_END__+0x147c>
    1d14:	f9470611 	ldr	x17, [x16, #3592]
    1d18:	91382210 	add	x16, x16, #0xe08
    1d1c:	d61f0220 	br	x17

0000000000001d20 <argp_state_help@plt>:
    1d20:	d0000050 	adrp	x16, b000 <__FRAME_END__+0x147c>
    1d24:	f9470a11 	ldr	x17, [x16, #3600]
    1d28:	91384210 	add	x16, x16, #0xe10
    1d2c:	d61f0220 	br	x17

0000000000001d30 <__libc_current_sigrtmin@plt>:
    1d30:	d0000050 	adrp	x16, b000 <__FRAME_END__+0x147c>
    1d34:	f9470e11 	ldr	x17, [x16, #3608]
    1d38:	91386210 	add	x16, x16, #0xe18
    1d3c:	d61f0220 	br	x17

0000000000001d40 <memset@plt>:
    1d40:	d0000050 	adrp	x16, b000 <__FRAME_END__+0x147c>
    1d44:	f9471211 	ldr	x17, [x16, #3616]
    1d48:	91388210 	add	x16, x16, #0xe20
    1d4c:	d61f0220 	br	x17

0000000000001d50 <gettimeofday@plt>:
    1d50:	d0000050 	adrp	x16, b000 <__FRAME_END__+0x147c>
    1d54:	f9471611 	ldr	x17, [x16, #3624]
    1d58:	9138a210 	add	x16, x16, #0xe28
    1d5c:	d61f0220 	br	x17

0000000000001d60 <getopt@plt>:
    1d60:	d0000050 	adrp	x16, b000 <__FRAME_END__+0x147c>
    1d64:	f9471a11 	ldr	x17, [x16, #3632]
    1d68:	9138c210 	add	x16, x16, #0xe30
    1d6c:	d61f0220 	br	x17

0000000000001d70 <sem_post@plt>:
    1d70:	d0000050 	adrp	x16, b000 <__FRAME_END__+0x147c>
    1d74:	f9471e11 	ldr	x17, [x16, #3640]
    1d78:	9138e210 	add	x16, x16, #0xe38
    1d7c:	d61f0220 	br	x17

0000000000001d80 <pthread_attr_setdetachstate@plt>:
    1d80:	d0000050 	adrp	x16, b000 <__FRAME_END__+0x147c>
    1d84:	f9472211 	ldr	x17, [x16, #3648]
    1d88:	91390210 	add	x16, x16, #0xe40
    1d8c:	d61f0220 	br	x17

0000000000001d90 <rand@plt>:
    1d90:	d0000050 	adrp	x16, b000 <__FRAME_END__+0x147c>
    1d94:	f9472611 	ldr	x17, [x16, #3656]
    1d98:	91392210 	add	x16, x16, #0xe48
    1d9c:	d61f0220 	br	x17

0000000000001da0 <sched_get_priority_max@plt>:
    1da0:	d0000050 	adrp	x16, b000 <__FRAME_END__+0x147c>
    1da4:	f9472a11 	ldr	x17, [x16, #3664]
    1da8:	91394210 	add	x16, x16, #0xe50
    1dac:	d61f0220 	br	x17

0000000000001db0 <__stack_chk_fail@plt>:
    1db0:	d0000050 	adrp	x16, b000 <__FRAME_END__+0x147c>
    1db4:	f9472e11 	ldr	x17, [x16, #3672]
    1db8:	91396210 	add	x16, x16, #0xe58
    1dbc:	d61f0220 	br	x17

0000000000001dc0 <close@plt>:
    1dc0:	d0000050 	adrp	x16, b000 <__FRAME_END__+0x147c>
    1dc4:	f9473211 	ldr	x17, [x16, #3680]
    1dc8:	91398210 	add	x16, x16, #0xe60
    1dcc:	d61f0220 	br	x17

0000000000001dd0 <timer_delete@plt>:
    1dd0:	d0000050 	adrp	x16, b000 <__FRAME_END__+0x147c>
    1dd4:	f9473611 	ldr	x17, [x16, #3688]
    1dd8:	9139a210 	add	x16, x16, #0xe68
    1ddc:	d61f0220 	br	x17

0000000000001de0 <on_exit@plt>:
    1de0:	d0000050 	adrp	x16, b000 <__FRAME_END__+0x147c>
    1de4:	f9473a11 	ldr	x17, [x16, #3696]
    1de8:	9139c210 	add	x16, x16, #0xe70
    1dec:	d61f0220 	br	x17

0000000000001df0 <sigaction@plt>:
    1df0:	d0000050 	adrp	x16, b000 <__FRAME_END__+0x147c>
    1df4:	f9473e11 	ldr	x17, [x16, #3704]
    1df8:	9139e210 	add	x16, x16, #0xe78
    1dfc:	d61f0220 	br	x17

0000000000001e00 <__gmon_start__@plt>:
    1e00:	d0000050 	adrp	x16, b000 <__FRAME_END__+0x147c>
    1e04:	f9474211 	ldr	x17, [x16, #3712]
    1e08:	913a0210 	add	x16, x16, #0xe80
    1e0c:	d61f0220 	br	x17

0000000000001e10 <abort@plt>:
    1e10:	d0000050 	adrp	x16, b000 <__FRAME_END__+0x147c>
    1e14:	f9474611 	ldr	x17, [x16, #3720]
    1e18:	913a2210 	add	x16, x16, #0xe88
    1e1c:	d61f0220 	br	x17

0000000000001e20 <pthread_exit@plt>:
    1e20:	d0000050 	adrp	x16, b000 <__FRAME_END__+0x147c>
    1e24:	f9474a11 	ldr	x17, [x16, #3728]
    1e28:	913a4210 	add	x16, x16, #0xe90
    1e2c:	d61f0220 	br	x17

0000000000001e30 <pthread_attr_setschedpolicy@plt>:
    1e30:	d0000050 	adrp	x16, b000 <__FRAME_END__+0x147c>
    1e34:	f9474e11 	ldr	x17, [x16, #3736]
    1e38:	913a6210 	add	x16, x16, #0xe98
    1e3c:	d61f0220 	br	x17

0000000000001e40 <puts@plt>:
    1e40:	d0000050 	adrp	x16, b000 <__FRAME_END__+0x147c>
    1e44:	f9475211 	ldr	x17, [x16, #3744]
    1e48:	913a8210 	add	x16, x16, #0xea0
    1e4c:	d61f0220 	br	x17

0000000000001e50 <strcmp@plt>:
    1e50:	d0000050 	adrp	x16, b000 <__FRAME_END__+0x147c>
    1e54:	f9475611 	ldr	x17, [x16, #3752]
    1e58:	913aa210 	add	x16, x16, #0xea8
    1e5c:	d61f0220 	br	x17

0000000000001e60 <mmap@plt>:
    1e60:	d0000050 	adrp	x16, b000 <__FRAME_END__+0x147c>
    1e64:	f9475a11 	ldr	x17, [x16, #3760]
    1e68:	913ac210 	add	x16, x16, #0xeb0
    1e6c:	d61f0220 	br	x17

0000000000001e70 <strtol@plt>:
    1e70:	d0000050 	adrp	x16, b000 <__FRAME_END__+0x147c>
    1e74:	f9475e11 	ldr	x17, [x16, #3768]
    1e78:	913ae210 	add	x16, x16, #0xeb8
    1e7c:	d61f0220 	br	x17

0000000000001e80 <argp_error@plt>:
    1e80:	d0000050 	adrp	x16, b000 <__FRAME_END__+0x147c>
    1e84:	f9476211 	ldr	x17, [x16, #3776]
    1e88:	913b0210 	add	x16, x16, #0xec0
    1e8c:	d61f0220 	br	x17

0000000000001e90 <sched_setaffinity@plt>:
    1e90:	d0000050 	adrp	x16, b000 <__FRAME_END__+0x147c>
    1e94:	f9476611 	ldr	x17, [x16, #3784]
    1e98:	913b2210 	add	x16, x16, #0xec8
    1e9c:	d61f0220 	br	x17

0000000000001ea0 <free@plt>:
    1ea0:	d0000050 	adrp	x16, b000 <__FRAME_END__+0x147c>
    1ea4:	f9476a11 	ldr	x17, [x16, #3792]
    1ea8:	913b4210 	add	x16, x16, #0xed0
    1eac:	d61f0220 	br	x17

0000000000001eb0 <nanosleep@plt>:
    1eb0:	d0000050 	adrp	x16, b000 <__FRAME_END__+0x147c>
    1eb4:	f9476e11 	ldr	x17, [x16, #3800]
    1eb8:	913b6210 	add	x16, x16, #0xed8
    1ebc:	d61f0220 	br	x17

0000000000001ec0 <strchr@plt>:
    1ec0:	d0000050 	adrp	x16, b000 <__FRAME_END__+0x147c>
    1ec4:	f9477211 	ldr	x17, [x16, #3808]
    1ec8:	913b8210 	add	x16, x16, #0xee0
    1ecc:	d61f0220 	br	x17

0000000000001ed0 <strtoull@plt>:
    1ed0:	d0000050 	adrp	x16, b000 <__FRAME_END__+0x147c>
    1ed4:	f9477611 	ldr	x17, [x16, #3816]
    1ed8:	913ba210 	add	x16, x16, #0xee8
    1edc:	d61f0220 	br	x17

0000000000001ee0 <mallopt@plt>:
    1ee0:	d0000050 	adrp	x16, b000 <__FRAME_END__+0x147c>
    1ee4:	f9477a11 	ldr	x17, [x16, #3824]
    1ee8:	913bc210 	add	x16, x16, #0xef0
    1eec:	d61f0220 	br	x17

0000000000001ef0 <sem_init@plt>:
    1ef0:	d0000050 	adrp	x16, b000 <__FRAME_END__+0x147c>
    1ef4:	f9477e11 	ldr	x17, [x16, #3832]
    1ef8:	913be210 	add	x16, x16, #0xef8
    1efc:	d61f0220 	br	x17

0000000000001f00 <fwrite@plt>:
    1f00:	d0000050 	adrp	x16, b000 <__FRAME_END__+0x147c>
    1f04:	f9478211 	ldr	x17, [x16, #3840]
    1f08:	913c0210 	add	x16, x16, #0xf00
    1f0c:	d61f0220 	br	x17

0000000000001f10 <pthread_create@plt>:
    1f10:	d0000050 	adrp	x16, b000 <__FRAME_END__+0x147c>
    1f14:	f9478611 	ldr	x17, [x16, #3848]
    1f18:	913c2210 	add	x16, x16, #0xf08
    1f1c:	d61f0220 	br	x17

0000000000001f20 <argp_failure@plt>:
    1f20:	d0000050 	adrp	x16, b000 <__FRAME_END__+0x147c>
    1f24:	f9478a11 	ldr	x17, [x16, #3856]
    1f28:	913c4210 	add	x16, x16, #0xf10
    1f2c:	d61f0220 	br	x17

0000000000001f30 <__sched_cpucount@plt>:
    1f30:	d0000050 	adrp	x16, b000 <__FRAME_END__+0x147c>
    1f34:	f9478e11 	ldr	x17, [x16, #3864]
    1f38:	913c6210 	add	x16, x16, #0xf18
    1f3c:	d61f0220 	br	x17

0000000000001f40 <fflush@plt>:
    1f40:	d0000050 	adrp	x16, b000 <__FRAME_END__+0x147c>
    1f44:	f9479211 	ldr	x17, [x16, #3872]
    1f48:	913c8210 	add	x16, x16, #0xf20
    1f4c:	d61f0220 	br	x17

0000000000001f50 <strcpy@plt>:
    1f50:	d0000050 	adrp	x16, b000 <__FRAME_END__+0x147c>
    1f54:	f9479611 	ldr	x17, [x16, #3880]
    1f58:	913ca210 	add	x16, x16, #0xf28
    1f5c:	d61f0220 	br	x17

0000000000001f60 <read@plt>:
    1f60:	d0000050 	adrp	x16, b000 <__FRAME_END__+0x147c>
    1f64:	f9479a11 	ldr	x17, [x16, #3888]
    1f68:	913cc210 	add	x16, x16, #0xf30
    1f6c:	d61f0220 	br	x17

0000000000001f70 <sysconf@plt>:
    1f70:	d0000050 	adrp	x16, b000 <__FRAME_END__+0x147c>
    1f74:	f9479e11 	ldr	x17, [x16, #3896]
    1f78:	913ce210 	add	x16, x16, #0xf38
    1f7c:	d61f0220 	br	x17

0000000000001f80 <srand@plt>:
    1f80:	d0000050 	adrp	x16, b000 <__FRAME_END__+0x147c>
    1f84:	f947a211 	ldr	x17, [x16, #3904]
    1f88:	913d0210 	add	x16, x16, #0xf40
    1f8c:	d61f0220 	br	x17

0000000000001f90 <__isoc99_sscanf@plt>:
    1f90:	d0000050 	adrp	x16, b000 <__FRAME_END__+0x147c>
    1f94:	f947a611 	ldr	x17, [x16, #3912]
    1f98:	913d2210 	add	x16, x16, #0xf48
    1f9c:	d61f0220 	br	x17

0000000000001fa0 <lround@plt>:
    1fa0:	d0000050 	adrp	x16, b000 <__FRAME_END__+0x147c>
    1fa4:	f947aa11 	ldr	x17, [x16, #3920]
    1fa8:	913d4210 	add	x16, x16, #0xf50
    1fac:	d61f0220 	br	x17

0000000000001fb0 <sigaddset@plt>:
    1fb0:	d0000050 	adrp	x16, b000 <__FRAME_END__+0x147c>
    1fb4:	f947ae11 	ldr	x17, [x16, #3928]
    1fb8:	913d6210 	add	x16, x16, #0xf58
    1fbc:	d61f0220 	br	x17

0000000000001fc0 <printf@plt>:
    1fc0:	d0000050 	adrp	x16, b000 <__FRAME_END__+0x147c>
    1fc4:	f947b211 	ldr	x17, [x16, #3936]
    1fc8:	913d8210 	add	x16, x16, #0xf60
    1fcc:	d61f0220 	br	x17

0000000000001fd0 <__errno_location@plt>:
    1fd0:	d0000050 	adrp	x16, b000 <__FRAME_END__+0x147c>
    1fd4:	f947b611 	ldr	x17, [x16, #3944]
    1fd8:	913da210 	add	x16, x16, #0xf68
    1fdc:	d61f0220 	br	x17

0000000000001fe0 <pthread_join@plt>:
    1fe0:	d0000050 	adrp	x16, b000 <__FRAME_END__+0x147c>
    1fe4:	f947ba11 	ldr	x17, [x16, #3952]
    1fe8:	913dc210 	add	x16, x16, #0xf70
    1fec:	d61f0220 	br	x17

0000000000001ff0 <putchar@plt>:
    1ff0:	d0000050 	adrp	x16, b000 <__FRAME_END__+0x147c>
    1ff4:	f947be11 	ldr	x17, [x16, #3960]
    1ff8:	913de210 	add	x16, x16, #0xf78
    1ffc:	d61f0220 	br	x17

0000000000002000 <feclearexcept@plt>:
    2000:	b0000050 	adrp	x16, b000 <__FRAME_END__+0x147c>
    2004:	f947c211 	ldr	x17, [x16, #3968]
    2008:	913e0210 	add	x16, x16, #0xf80
    200c:	d61f0220 	br	x17

0000000000002010 <syscall@plt>:
    2010:	b0000050 	adrp	x16, b000 <__FRAME_END__+0x147c>
    2014:	f947c611 	ldr	x17, [x16, #3976]
    2018:	913e2210 	add	x16, x16, #0xf88
    201c:	d61f0220 	br	x17

0000000000002020 <pthread_attr_setschedparam@plt>:
    2020:	b0000050 	adrp	x16, b000 <__FRAME_END__+0x147c>
    2024:	f947ca11 	ldr	x17, [x16, #3984]
    2028:	913e4210 	add	x16, x16, #0xf90
    202c:	d61f0220 	br	x17

0000000000002030 <sem_destroy@plt>:
    2030:	b0000050 	adrp	x16, b000 <__FRAME_END__+0x147c>
    2034:	f947ce11 	ldr	x17, [x16, #3992]
    2038:	913e6210 	add	x16, x16, #0xf98
    203c:	d61f0220 	br	x17

0000000000002040 <fprintf@plt>:
    2040:	b0000050 	adrp	x16, b000 <__FRAME_END__+0x147c>
    2044:	f947d211 	ldr	x17, [x16, #4000]
    2048:	913e8210 	add	x16, x16, #0xfa0
    204c:	d61f0220 	br	x17

Disassembly of section .text:

0000000000002080 <main>:
    2080:	d11783ff 	sub	sp, sp, #0x5e0
    2084:	b0000042 	adrp	x2, b000 <__FRAME_END__+0x147c>
    2088:	910863e6 	add	x6, sp, #0x218
    208c:	a9007bfd 	stp	x29, x30, [sp]
    2090:	910003fd 	mov	x29, sp
    2094:	f947f442 	ldr	x2, [x2, #4072]
    2098:	a90153f3 	stp	x19, x20, [sp, #16]
    209c:	52800073 	mov	w19, #0x3                   	// #3
    20a0:	a9025bf5 	stp	x21, x22, [sp, #32]
    20a4:	2a0003f5 	mov	w21, w0
    20a8:	aa0103f6 	mov	x22, x1
    20ac:	aa0603e0 	mov	x0, x6
    20b0:	f9400041 	ldr	x1, [x2]
    20b4:	f902efe1 	str	x1, [sp, #1496]
    20b8:	d2800001 	mov	x1, #0x0                   	// #0
    20bc:	d2807802 	mov	x2, #0x3c0                 	// #960
    20c0:	97ffff20 	bl	1d40 <memset@plt>
    20c4:	b0000023 	adrp	x3, 7000 <__trunctfdf2+0x228>
    20c8:	9127c063 	add	x3, x3, #0x9f0
    20cc:	f9012fe3 	str	x3, [sp, #600]
    20d0:	aa0003e6 	mov	x6, x0
    20d4:	f90147e3 	str	x3, [sp, #648]
    20d8:	52800043 	mov	w3, #0x2                   	// #2
    20dc:	b0000020 	adrp	x0, 7000 <__trunctfdf2+0x228>
    20e0:	912a0000 	add	x0, x0, #0xa80
    20e4:	b90243e3 	str	w3, [sp, #576]
    20e8:	52800c83 	mov	w3, #0x64                  	// #100
    20ec:	b0000022 	adrp	x2, 7000 <__trunctfdf2+0x228>
    20f0:	91270042 	add	x2, x2, #0x9c0
    20f4:	b0000021 	adrp	x1, 7000 <__trunctfdf2+0x228>
    20f8:	91278021 	add	x1, x1, #0x9e0
    20fc:	b0000032 	adrp	x18, 7000 <__trunctfdf2+0x228>
    2100:	9127e252 	add	x18, x18, #0x9f8
    2104:	b0000031 	adrp	x17, 7000 <__trunctfdf2+0x228>
    2108:	912a2231 	add	x17, x17, #0xa88
    210c:	b0000030 	adrp	x16, 7000 <__trunctfdf2+0x228>
    2110:	912d8210 	add	x16, x16, #0xb60
    2114:	b000002f 	adrp	x15, 7000 <__trunctfdf2+0x228>
    2118:	912de1ef 	add	x15, x15, #0xb78
    211c:	b000002e 	adrp	x14, 7000 <__trunctfdf2+0x228>
    2120:	912e21ce 	add	x14, x14, #0xb88
    2124:	b90253e3 	str	w3, [sp, #592]
    2128:	52800e03 	mov	w3, #0x70                  	// #112
    212c:	f9013fe0 	str	x0, [sp, #632]
    2130:	b0000020 	adrp	x0, 7000 <__trunctfdf2+0x228>
    2134:	9139a000 	add	x0, x0, #0xe68
    2138:	b000002d 	adrp	x13, 7000 <__trunctfdf2+0x228>
    213c:	912e61ad 	add	x13, x13, #0xb98
    2140:	b000002c 	adrp	x12, 7000 <__trunctfdf2+0x228>
    2144:	9130018c 	add	x12, x12, #0xc00
    2148:	b000002b 	adrp	x11, 7000 <__trunctfdf2+0x228>
    214c:	9130416b 	add	x11, x11, #0xc10
    2150:	b000002a 	adrp	x10, 7000 <__trunctfdf2+0x228>
    2154:	9130814a 	add	x10, x10, #0xc20
    2158:	b0000029 	adrp	x9, 7000 <__trunctfdf2+0x228>
    215c:	9135e129 	add	x9, x9, #0xd78
    2160:	b0000028 	adrp	x8, 7000 <__trunctfdf2+0x228>
    2164:	91362108 	add	x8, x8, #0xd88
    2168:	b0000027 	adrp	x7, 7000 <__trunctfdf2+0x228>
    216c:	913660e7 	add	x7, x7, #0xd98
    2170:	b0000025 	adrp	x5, 7000 <__trunctfdf2+0x228>
    2174:	9137e0a5 	add	x5, x5, #0xdf8
    2178:	b0000024 	adrp	x4, 7000 <__trunctfdf2+0x228>
    217c:	91384084 	add	x4, x4, #0xe10
    2180:	f9011fe2 	str	x2, [sp, #568]
    2184:	b0000022 	adrp	x2, 7000 <__trunctfdf2+0x228>
    2188:	91386042 	add	x2, x2, #0xe18
    218c:	f90127e1 	str	x1, [sp, #584]
    2190:	b0000021 	adrp	x1, 7000 <__trunctfdf2+0x228>
    2194:	9138a021 	add	x1, x1, #0xe28
    2198:	f90137f2 	str	x18, [sp, #616]
    219c:	52800db2 	mov	w18, #0x6d                  	// #109
    21a0:	b90283e3 	str	w3, [sp, #640]
    21a4:	52800c63 	mov	w3, #0x63                  	// #99
    21a8:	f9014ff1 	str	x17, [sp, #664]
    21ac:	52800e91 	mov	w17, #0x74                  	// #116
    21b0:	f90167f0 	str	x16, [sp, #712]
    21b4:	52800090 	mov	w16, #0x4                   	// #4
    21b8:	b902d3f3 	str	w19, [sp, #720]
    21bc:	f9016fef 	str	x15, [sp, #728]
    21c0:	52800ccf 	mov	w15, #0x66                  	// #102
    21c4:	b902e3e3 	str	w3, [sp, #736]
    21c8:	b0000023 	adrp	x3, 7000 <__trunctfdf2+0x228>
    21cc:	9139e063 	add	x3, x3, #0xe78
    21d0:	f90177ee 	str	x14, [sp, #744]
    21d4:	52800a8e 	mov	w14, #0x54                  	// #84
    21d8:	f9017fed 	str	x13, [sp, #760]
    21dc:	f90187ec 	str	x12, [sp, #776]
    21e0:	b000003e 	adrp	x30, 7000 <__trunctfdf2+0x228>
    21e4:	913a03de 	add	x30, x30, #0xe80
    21e8:	b90313f2 	str	w18, [sp, #784]
    21ec:	f9018feb 	str	x11, [sp, #792]
    21f0:	b0000034 	adrp	x20, 7000 <__trunctfdf2+0x228>
    21f4:	913b0294 	add	x20, x20, #0xec0
    21f8:	f90197ea 	str	x10, [sp, #808]
    21fc:	f9019fe9 	str	x9, [sp, #824]
    2200:	d000002d 	adrp	x13, 8000 <_IO_stdin_used+0xef8>
    2204:	9108e1ad 	add	x13, x13, #0x238
    2208:	b90343f1 	str	w17, [sp, #832]
    220c:	f901a7e8 	str	x8, [sp, #840]
    2210:	d000002c 	adrp	x12, 8000 <_IO_stdin_used+0xef8>
    2214:	910aa18c 	add	x12, x12, #0x2a8
    2218:	f901afe7 	str	x7, [sp, #856]
    221c:	f901c7e5 	str	x5, [sp, #904]
    2220:	d0000027 	adrp	x7, 8000 <_IO_stdin_used+0xef8>
    2224:	9104e0e7 	add	x7, x7, #0x138
    2228:	b90393f0 	str	w16, [sp, #912]
    222c:	f901cfe4 	str	x4, [sp, #920]
    2230:	d000002b 	adrp	x11, 8000 <_IO_stdin_used+0xef8>
    2234:	910b416b 	add	x11, x11, #0x2d0
    2238:	b903a3ef 	str	w15, [sp, #928]
    223c:	f901d7e2 	str	x2, [sp, #936]
    2240:	d000002a 	adrp	x10, 8000 <_IO_stdin_used+0xef8>
    2244:	910b814a 	add	x10, x10, #0x2e0
    2248:	f901dfe1 	str	x1, [sp, #952]
    224c:	f901e7e0 	str	x0, [sp, #968]
    2250:	b0000020 	adrp	x0, 7000 <__trunctfdf2+0x228>
    2254:	91108000 	add	x0, x0, #0x420
    2258:	b903d3ee 	str	w14, [sp, #976]
    225c:	f901efe3 	str	x3, [sp, #984]
    2260:	d0000029 	adrp	x9, 8000 <_IO_stdin_used+0xef8>
    2264:	910bc129 	add	x9, x9, #0x2f0
    2268:	f90037e0 	str	x0, [sp, #104]
    226c:	d0000020 	adrp	x0, 8000 <_IO_stdin_used+0xef8>
    2270:	910fa000 	add	x0, x0, #0x3e8
    2274:	d0000028 	adrp	x8, 8000 <_IO_stdin_used+0xef8>
    2278:	910f4108 	add	x8, x8, #0x3d0
    227c:	b0000032 	adrp	x18, 7000 <__trunctfdf2+0x228>
    2280:	913c4252 	add	x18, x18, #0xf10
    2284:	b0000031 	adrp	x17, 7000 <__trunctfdf2+0x228>
    2288:	913c8231 	add	x17, x17, #0xf20
    228c:	d0000030 	adrp	x16, 8000 <_IO_stdin_used+0xef8>
    2290:	91048210 	add	x16, x16, #0x120
    2294:	d000002f 	adrp	x15, 8000 <_IO_stdin_used+0xef8>
    2298:	910521ef 	add	x15, x15, #0x148
    229c:	d000002e 	adrp	x14, 8000 <_IO_stdin_used+0xef8>
    22a0:	9108a1ce 	add	x14, x14, #0x228
    22a4:	f9003be0 	str	x0, [sp, #112]
    22a8:	52800880 	mov	w0, #0x44                  	// #68
    22ac:	f90247e7 	str	x7, [sp, #1160]
    22b0:	b0000007 	adrp	x7, 3000 <print_timing+0x1d0>
    22b4:	911480e7 	add	x7, x7, #0x520
    22b8:	b0000033 	adrp	x19, 7000 <__trunctfdf2+0x228>
    22bc:	913b4273 	add	x19, x19, #0xed0
    22c0:	f901fff4 	str	x20, [sp, #1016]
    22c4:	528000b4 	mov	w20, #0x5                   	// #5
    22c8:	b90403e0 	str	w0, [sp, #1024]
    22cc:	52800a00 	mov	w0, #0x50                  	// #80
    22d0:	f90217f2 	str	x18, [sp, #1064]
    22d4:	52800c52 	mov	w18, #0x62                  	// #98
    22d8:	f90227f1 	str	x17, [sp, #1096]
    22dc:	12800011 	mov	w17, #0xffffffff            	// #-1
    22e0:	f9023ff0 	str	x16, [sp, #1144]
    22e4:	52800d10 	mov	w16, #0x68                  	// #104
    22e8:	2a1503e1 	mov	w1, w21
    22ec:	d0000025 	adrp	x5, 8000 <_IO_stdin_used+0xef8>
    22f0:	910540a5 	add	x5, x5, #0x150
    22f4:	d0000024 	adrp	x4, 8000 <_IO_stdin_used+0xef8>
    22f8:	91088084 	add	x4, x4, #0x220
    22fc:	52800d95 	mov	w21, #0x6c                  	// #108
    2300:	a907ffff 	stp	xzr, xzr, [sp, #120]
    2304:	aa1603e2 	mov	x2, x22
    2308:	f90047ff 	str	xzr, [sp, #136]
    230c:	f901f7fe 	str	x30, [sp, #1000]
    2310:	f90207e3 	str	x3, [sp, #1032]
    2314:	f9020ff3 	str	x19, [sp, #1048]
    2318:	528000d3 	mov	w19, #0x6                   	// #6
    231c:	b90433e0 	str	w0, [sp, #1072]
    2320:	52800de0 	mov	w0, #0x6f                  	// #111
    2324:	f9021fe3 	str	x3, [sp, #1080]
    2328:	52800103 	mov	w3, #0x8                   	// #8
    232c:	b90483f4 	str	w20, [sp, #1152]
    2330:	910243f4 	add	x20, sp, #0x90
    2334:	b90493f5 	str	w21, [sp, #1168]
    2338:	f9024fef 	str	x15, [sp, #1176]
    233c:	f90257e5 	str	x5, [sp, #1192]
    2340:	aa1403e5 	mov	x5, x20
    2344:	f9025fe4 	str	x4, [sp, #1208]
    2348:	d2800004 	mov	x4, #0x0                   	// #0
    234c:	b904c3e0 	str	w0, [sp, #1216]
    2350:	910163e0 	add	x0, sp, #0x58
    2354:	f90267ee 	str	x14, [sp, #1224]
    2358:	f9026fed 	str	x13, [sp, #1240]
    235c:	f90287ec 	str	x12, [sp, #1288]
    2360:	b90513f3 	str	w19, [sp, #1296]
    2364:	f9028feb 	str	x11, [sp, #1304]
    2368:	b90523f2 	str	w18, [sp, #1312]
    236c:	f90297ea 	str	x10, [sp, #1320]
    2370:	f9029fe9 	str	x9, [sp, #1336]
    2374:	f902b7e8 	str	x8, [sp, #1384]
    2378:	b90573f1 	str	w17, [sp, #1392]
    237c:	b90583f0 	str	w16, [sp, #1408]
    2380:	a9059fe6 	stp	x6, x7, [sp, #88]
    2384:	97fffe2f 	bl	1c40 <argp_parse@plt>
    2388:	350002a0 	cbnz	w0, 23dc <main+0x35c>
    238c:	b0000055 	adrp	x21, b000 <__FRAME_END__+0x147c>
    2390:	f947deb3 	ldr	x19, [x21, #4024]
    2394:	b9400260 	ldr	w0, [x19]
    2398:	7100101f 	cmp	w0, #0x4
    239c:	540002a0 	b.eq	23f0 <main+0x370>  // b.none
    23a0:	aa1403e0 	mov	x0, x20
    23a4:	94000a7b 	bl	4d90 <periodic_benchmark>
    23a8:	531f7c00 	lsr	w0, w0, #31
    23ac:	b0000041 	adrp	x1, b000 <__FRAME_END__+0x147c>
    23b0:	f947f421 	ldr	x1, [x1, #4072]
    23b4:	f942efe3 	ldr	x3, [sp, #1496]
    23b8:	f9400022 	ldr	x2, [x1]
    23bc:	eb020063 	subs	x3, x3, x2
    23c0:	d2800002 	mov	x2, #0x0                   	// #0
    23c4:	540010c1 	b.ne	25dc <main+0x55c>  // b.any
    23c8:	a9407bfd 	ldp	x29, x30, [sp]
    23cc:	a94153f3 	ldp	x19, x20, [sp, #16]
    23d0:	a9425bf5 	ldp	x21, x22, [sp, #32]
    23d4:	911783ff 	add	sp, sp, #0x5e0
    23d8:	d65f03c0 	ret
    23dc:	d0000020 	adrp	x0, 8000 <_IO_stdin_used+0xef8>
    23e0:	9110c000 	add	x0, x0, #0x430
    23e4:	97fffe03 	bl	1bf0 <perror@plt>
    23e8:	52800020 	mov	w0, #0x1                   	// #1
    23ec:	17fffff0 	b	23ac <main+0x32c>
    23f0:	b0000056 	adrp	x22, b000 <__FRAME_END__+0x147c>
    23f4:	a90363f7 	stp	x23, x24, [sp, #48]
    23f8:	d0000020 	adrp	x0, 8000 <_IO_stdin_used+0xef8>
    23fc:	f947e6d7 	ldr	x23, [x22, #4040]
    2400:	91114000 	add	x0, x0, #0x450
    2404:	d2800242 	mov	x2, #0x12                  	// #18
    2408:	d2800021 	mov	x1, #0x1                   	// #1
    240c:	f94002e3 	ldr	x3, [x23]
    2410:	97fffebc 	bl	1f00 <fwrite@plt>
    2414:	b9400260 	ldr	w0, [x19]
    2418:	71000c1f 	cmp	w0, #0x3
    241c:	54000c28 	b.hi	25a0 <main+0x520>  // b.pmore
    2420:	f947deb8 	ldr	x24, [x21, #4024]
    2424:	d2800013 	mov	x19, #0x0                   	// #0
    2428:	b94093e0 	ldr	w0, [sp, #144]
    242c:	b9400302 	ldr	w2, [x24]
    2430:	7100001f 	cmp	w0, #0x0
    2434:	540002ad 	b.le	2488 <main+0x408>
    2438:	d0000037 	adrp	x23, 8000 <_IO_stdin_used+0xef8>
    243c:	911242f7 	add	x23, x23, #0x490
    2440:	f90023f9 	str	x25, [sp, #64]
    2444:	f947e6d9 	ldr	x25, [x22, #4040]
    2448:	14000004 	b	2458 <main+0x3d8>
    244c:	91000673 	add	x19, x19, #0x1
    2450:	6b13001f 	cmp	w0, w19
    2454:	5400018d 	b.le	2484 <main+0x404>
    2458:	71000c5f 	cmp	w2, #0x3
    245c:	54ffff89 	b.ls	244c <main+0x3cc>  // b.plast
    2460:	f9404fe3 	ldr	x3, [sp, #152]
    2464:	2a1303e2 	mov	w2, w19
    2468:	f9400320 	ldr	x0, [x25]
    246c:	aa1703e1 	mov	x1, x23
    2470:	f8737863 	ldr	x3, [x3, x19, lsl #3]
    2474:	97fffef3 	bl	2040 <fprintf@plt>
    2478:	b9400302 	ldr	w2, [x24]
    247c:	b94093e0 	ldr	w0, [sp, #144]
    2480:	17fffff3 	b	244c <main+0x3cc>
    2484:	f94023f9 	ldr	x25, [sp, #64]
    2488:	f947deb5 	ldr	x21, [x21, #4024]
    248c:	b94002a0 	ldr	w0, [x21]
    2490:	71000c1f 	cmp	w0, #0x3
    2494:	54000068 	b.hi	24a0 <main+0x420>  // b.pmore
    2498:	a94363f7 	ldp	x23, x24, [sp, #48]
    249c:	17ffffc1 	b	23a0 <main+0x320>
    24a0:	f947e6d6 	ldr	x22, [x22, #4040]
    24a4:	d0000021 	adrp	x1, 8000 <_IO_stdin_used+0xef8>
    24a8:	91128021 	add	x1, x1, #0x4a0
    24ac:	fd4053e0 	ldr	d0, [sp, #160]
    24b0:	f94002c0 	ldr	x0, [x22]
    24b4:	97fffee3 	bl	2040 <fprintf@plt>
    24b8:	b94002a0 	ldr	w0, [x21]
    24bc:	71000c1f 	cmp	w0, #0x3
    24c0:	54fffec9 	b.ls	2498 <main+0x418>  // b.plast
    24c4:	f94002c0 	ldr	x0, [x22]
    24c8:	d0000021 	adrp	x1, 8000 <_IO_stdin_used+0xef8>
    24cc:	9112c021 	add	x1, x1, #0x4b0
    24d0:	f9405be2 	ldr	x2, [sp, #176]
    24d4:	97fffedb 	bl	2040 <fprintf@plt>
    24d8:	b94002a0 	ldr	w0, [x21]
    24dc:	71000c1f 	cmp	w0, #0x3
    24e0:	54fffdc9 	b.ls	2498 <main+0x418>  // b.plast
    24e4:	f94002c0 	ldr	x0, [x22]
    24e8:	d0000021 	adrp	x1, 8000 <_IO_stdin_used+0xef8>
    24ec:	91134021 	add	x1, x1, #0x4d0
    24f0:	f9405fe2 	ldr	x2, [sp, #184]
    24f4:	97fffed3 	bl	2040 <fprintf@plt>
    24f8:	b94002a0 	ldr	w0, [x21]
    24fc:	71000c1f 	cmp	w0, #0x3
    2500:	54fffcc9 	b.ls	2498 <main+0x418>  // b.plast
    2504:	f94002c0 	ldr	x0, [x22]
    2508:	d0000021 	adrp	x1, 8000 <_IO_stdin_used+0xef8>
    250c:	9113c021 	add	x1, x1, #0x4f0
    2510:	fd4057e0 	ldr	d0, [sp, #168]
    2514:	97fffecb 	bl	2040 <fprintf@plt>
    2518:	b94002a0 	ldr	w0, [x21]
    251c:	71000c1f 	cmp	w0, #0x3
    2520:	54fffbc9 	b.ls	2498 <main+0x418>  // b.plast
    2524:	f94002c0 	ldr	x0, [x22]
    2528:	d0000021 	adrp	x1, 8000 <_IO_stdin_used+0xef8>
    252c:	91140021 	add	x1, x1, #0x500
    2530:	f94063e2 	ldr	x2, [sp, #192]
    2534:	97fffec3 	bl	2040 <fprintf@plt>
    2538:	b94002a0 	ldr	w0, [x21]
    253c:	71000c1f 	cmp	w0, #0x3
    2540:	54fffac9 	b.ls	2498 <main+0x418>  // b.plast
    2544:	f94002c0 	ldr	x0, [x22]
    2548:	d0000021 	adrp	x1, 8000 <_IO_stdin_used+0xef8>
    254c:	91146021 	add	x1, x1, #0x518
    2550:	f94067e2 	ldr	x2, [sp, #200]
    2554:	97fffebb 	bl	2040 <fprintf@plt>
    2558:	b94002a0 	ldr	w0, [x21]
    255c:	71000c1f 	cmp	w0, #0x3
    2560:	54fff9c9 	b.ls	2498 <main+0x418>  // b.plast
    2564:	f94002c0 	ldr	x0, [x22]
    2568:	d0000021 	adrp	x1, 8000 <_IO_stdin_used+0xef8>
    256c:	9114e021 	add	x1, x1, #0x538
    2570:	f9406be2 	ldr	x2, [sp, #208]
    2574:	97fffeb3 	bl	2040 <fprintf@plt>
    2578:	b94002a0 	ldr	w0, [x21]
    257c:	71000c1f 	cmp	w0, #0x3
    2580:	54fff8c9 	b.ls	2498 <main+0x418>  // b.plast
    2584:	f94002c0 	ldr	x0, [x22]
    2588:	d0000021 	adrp	x1, 8000 <_IO_stdin_used+0xef8>
    258c:	91154021 	add	x1, x1, #0x550
    2590:	f9406fe2 	ldr	x2, [sp, #216]
    2594:	97fffeab 	bl	2040 <fprintf@plt>
    2598:	a94363f7 	ldp	x23, x24, [sp, #48]
    259c:	17ffff81 	b	23a0 <main+0x320>
    25a0:	b94093e2 	ldr	w2, [sp, #144]
    25a4:	d0000021 	adrp	x1, 8000 <_IO_stdin_used+0xef8>
    25a8:	9111a021 	add	x1, x1, #0x468
    25ac:	f94002e0 	ldr	x0, [x23]
    25b0:	97fffea4 	bl	2040 <fprintf@plt>
    25b4:	b9400260 	ldr	w0, [x19]
    25b8:	71000c1f 	cmp	w0, #0x3
    25bc:	54fff329 	b.ls	2420 <main+0x3a0>  // b.plast
    25c0:	f94002e3 	ldr	x3, [x23]
    25c4:	d0000020 	adrp	x0, 8000 <_IO_stdin_used+0xef8>
    25c8:	d2800182 	mov	x2, #0xc                   	// #12
    25cc:	d2800021 	mov	x1, #0x1                   	// #1
    25d0:	91120000 	add	x0, x0, #0x480
    25d4:	97fffe4b 	bl	1f00 <fwrite@plt>
    25d8:	17ffff92 	b	2420 <main+0x3a0>
    25dc:	a90363f7 	stp	x23, x24, [sp, #48]
    25e0:	f90023f9 	str	x25, [sp, #64]
    25e4:	97fffdf3 	bl	1db0 <__stack_chk_fail@plt>
    25e8:	d503201f 	nop
    25ec:	d503201f 	nop
    25f0:	d503201f 	nop
    25f4:	d503201f 	nop
    25f8:	d503201f 	nop
    25fc:	d503201f 	nop

0000000000002600 <_start>:
    2600:	d503201f 	nop
    2604:	d280001d 	mov	x29, #0x0                   	// #0
    2608:	d280001e 	mov	x30, #0x0                   	// #0
    260c:	aa0003e5 	mov	x5, x0
    2610:	f94003e1 	ldr	x1, [sp]
    2614:	910023e2 	add	x2, sp, #0x8
    2618:	910003e6 	mov	x6, sp
    261c:	b0000040 	adrp	x0, b000 <__FRAME_END__+0x147c>
    2620:	f947f800 	ldr	x0, [x0, #4080]
    2624:	d2800003 	mov	x3, #0x0                   	// #0
    2628:	d2800004 	mov	x4, #0x0                   	// #0
    262c:	97fffd6d 	bl	1be0 <__libc_start_main@plt>
    2630:	97fffdf8 	bl	1e10 <abort@plt>

0000000000002634 <call_weak_fn>:
    2634:	b0000040 	adrp	x0, b000 <__FRAME_END__+0x147c>
    2638:	f947f000 	ldr	x0, [x0, #4064]
    263c:	b4000040 	cbz	x0, 2644 <call_weak_fn+0x10>
    2640:	17fffdf0 	b	1e00 <__gmon_start__@plt>
    2644:	d65f03c0 	ret

0000000000002648 <deregister_tm_clones>:
    2648:	d0000040 	adrp	x0, c000 <__data_start>
    264c:	91008000 	add	x0, x0, #0x20
    2650:	d0000041 	adrp	x1, c000 <__data_start>
    2654:	91008021 	add	x1, x1, #0x20
    2658:	eb00003f 	cmp	x1, x0
    265c:	540000c0 	b.eq	2674 <deregister_tm_clones+0x2c>  // b.none
    2660:	b0000041 	adrp	x1, b000 <__FRAME_END__+0x147c>
    2664:	f947d821 	ldr	x1, [x1, #4016]
    2668:	b4000061 	cbz	x1, 2674 <deregister_tm_clones+0x2c>
    266c:	aa0103f0 	mov	x16, x1
    2670:	d61f0200 	br	x16
    2674:	d65f03c0 	ret

0000000000002678 <register_tm_clones>:
    2678:	d0000040 	adrp	x0, c000 <__data_start>
    267c:	91008000 	add	x0, x0, #0x20
    2680:	d0000041 	adrp	x1, c000 <__data_start>
    2684:	91008021 	add	x1, x1, #0x20
    2688:	cb000021 	sub	x1, x1, x0
    268c:	d2800042 	mov	x2, #0x2                   	// #2
    2690:	9343fc21 	asr	x1, x1, #3
    2694:	9ac20c21 	sdiv	x1, x1, x2
    2698:	b40000c1 	cbz	x1, 26b0 <register_tm_clones+0x38>
    269c:	b0000042 	adrp	x2, b000 <__FRAME_END__+0x147c>
    26a0:	f947fc42 	ldr	x2, [x2, #4088]
    26a4:	b4000062 	cbz	x2, 26b0 <register_tm_clones+0x38>
    26a8:	aa0203f0 	mov	x16, x2
    26ac:	d61f0200 	br	x16
    26b0:	d65f03c0 	ret

00000000000026b4 <__do_global_dtors_aux>:
    26b4:	a9be7bfd 	stp	x29, x30, [sp, #-32]!
    26b8:	910003fd 	mov	x29, sp
    26bc:	f9000bf3 	str	x19, [sp, #16]
    26c0:	d0000053 	adrp	x19, c000 <__data_start>
    26c4:	39408260 	ldrb	w0, [x19, #32]
    26c8:	35000140 	cbnz	w0, 26f0 <__do_global_dtors_aux+0x3c>
    26cc:	b0000040 	adrp	x0, b000 <__FRAME_END__+0x147c>
    26d0:	f947e000 	ldr	x0, [x0, #4032]
    26d4:	b4000080 	cbz	x0, 26e4 <__do_global_dtors_aux+0x30>
    26d8:	d0000040 	adrp	x0, c000 <__data_start>
    26dc:	f9400400 	ldr	x0, [x0, #8]
    26e0:	97fffd54 	bl	1c30 <__cxa_finalize@plt>
    26e4:	97ffffd9 	bl	2648 <deregister_tm_clones>
    26e8:	52800020 	mov	w0, #0x1                   	// #1
    26ec:	39008260 	strb	w0, [x19, #32]
    26f0:	f9400bf3 	ldr	x19, [sp, #16]
    26f4:	a8c27bfd 	ldp	x29, x30, [sp], #32
    26f8:	d65f03c0 	ret

00000000000026fc <frame_dummy>:
    26fc:	17ffffdf 	b	2678 <register_tm_clones>

0000000000002700 <get_elapsed>:
    2700:	a9400004 	ldp	x4, x0, [x0]
    2704:	d2994003 	mov	x3, #0xca00                	// #51712
    2708:	f2a77343 	movk	x3, #0x3b9a, lsl #16
    270c:	a9400422 	ldp	x2, x1, [x1]
    2710:	cb040042 	sub	x2, x2, x4
    2714:	cb000020 	sub	x0, x1, x0
    2718:	9b030040 	madd	x0, x2, x3, x0
    271c:	d65f03c0 	ret

0000000000002720 <usage>:
    2720:	a9bf7bfd 	stp	x29, x30, [sp, #-16]!
    2724:	b0000020 	adrp	x0, 7000 <__trunctfdf2+0x228>
    2728:	91044000 	add	x0, x0, #0x110
    272c:	910003fd 	mov	x29, sp
    2730:	f9400021 	ldr	x1, [x1]
    2734:	97fffe23 	bl	1fc0 <printf@plt>
    2738:	52880001 	mov	w1, #0x4000                	// #16384
    273c:	b0000020 	adrp	x0, 7000 <__trunctfdf2+0x228>
    2740:	9104c000 	add	x0, x0, #0x130
    2744:	97fffe1f 	bl	1fc0 <printf@plt>
    2748:	b0000020 	adrp	x0, 7000 <__trunctfdf2+0x228>
    274c:	91056000 	add	x0, x0, #0x158
    2750:	97fffdbc 	bl	1e40 <puts@plt>
    2754:	52800c81 	mov	w1, #0x64                  	// #100
    2758:	b0000020 	adrp	x0, 7000 <__trunctfdf2+0x228>
    275c:	91060000 	add	x0, x0, #0x180
    2760:	97fffe18 	bl	1fc0 <printf@plt>
    2764:	b0000020 	adrp	x0, 7000 <__trunctfdf2+0x228>
    2768:	91068000 	add	x0, x0, #0x1a0
    276c:	97fffdb5 	bl	1e40 <puts@plt>
    2770:	52800020 	mov	w0, #0x1                   	// #1
    2774:	97fffd13 	bl	1bc0 <exit@plt>
    2778:	d503201f 	nop
    277c:	d503201f 	nop

0000000000002780 <benchmark_log_header>:
    2780:	b0000020 	adrp	x0, 7000 <__trunctfdf2+0x228>
    2784:	9106c000 	add	x0, x0, #0x1b0
    2788:	d65f03c0 	ret
    278c:	d503201f 	nop

0000000000002790 <benchmark_init>:
    2790:	a9ba7bfd 	stp	x29, x30, [sp, #-96]!
    2794:	910003fd 	mov	x29, sp
    2798:	a9025bf5 	stp	x21, x22, [sp, #32]
    279c:	11000415 	add	w21, w0, #0x1
    27a0:	937d7eb6 	sbfiz	x22, x21, #3, #32
    27a4:	a90153f3 	stp	x19, x20, [sp, #16]
    27a8:	aa1603e0 	mov	x0, x22
    27ac:	aa0103f3 	mov	x19, x1
    27b0:	a90363f7 	stp	x23, x24, [sp, #48]
    27b4:	52800014 	mov	w20, #0x0                   	// #0
    27b8:	a9046bf9 	stp	x25, x26, [sp, #64]
    27bc:	b000005a 	adrp	x26, b000 <__FRAME_END__+0x147c>
    27c0:	b0000039 	adrp	x25, 7000 <__trunctfdf2+0x228>
    27c4:	91072339 	add	x25, x25, #0x1c8
    27c8:	f9002bfb 	str	x27, [sp, #80]
    27cc:	94000651 	bl	4110 <__wrap_malloc>
    27d0:	aa0003f8 	mov	x24, x0
    27d4:	b0000023 	adrp	x3, 7000 <__trunctfdf2+0x228>
    27d8:	91070063 	add	x3, x3, #0x1c0
    27dc:	f8008403 	str	x3, [x0], #8
    27e0:	d10022c2 	sub	x2, x22, #0x8
    27e4:	aa1303e1 	mov	x1, x19
    27e8:	b0000036 	adrp	x22, 7000 <__trunctfdf2+0x228>
    27ec:	910742d6 	add	x22, x22, #0x1d0
    27f0:	97fffcdc 	bl	1b60 <memcpy@plt>
    27f4:	f947eb5b 	ldr	x27, [x26, #4048]
    27f8:	aa1603e2 	mov	x2, x22
    27fc:	aa1803e1 	mov	x1, x24
    2800:	2a1503e0 	mov	w0, w21
    2804:	97fffd57 	bl	1d60 <getopt@plt>
    2808:	2a0003f3 	mov	w19, w0
    280c:	3100041f 	cmn	w0, #0x1
    2810:	54000320 	b.eq	2874 <benchmark_init+0xe4>  // b.none
    2814:	2a1303e1 	mov	w1, w19
    2818:	aa1903e0 	mov	x0, x25
    281c:	97fffde9 	bl	1fc0 <printf@plt>
    2820:	7101b67f 	cmp	w19, #0x6d
    2824:	54000f60 	b.eq	2a10 <benchmark_init+0x280>  // b.none
    2828:	54000eec 	b.gt	2a04 <benchmark_init+0x274>
    282c:	7101a27f 	cmp	w19, #0x68
    2830:	54001420 	b.eq	2ab4 <benchmark_init+0x324>  // b.none
    2834:	7101a67f 	cmp	w19, #0x69
    2838:	54fffe01 	b.ne	27f8 <benchmark_init+0x68>  // b.any
    283c:	f947eb40 	ldr	x0, [x26, #4048]
    2840:	52800002 	mov	w2, #0x0                   	// #0
    2844:	d2800001 	mov	x1, #0x0                   	// #0
    2848:	f9400000 	ldr	x0, [x0]
    284c:	97fffd89 	bl	1e70 <strtol@plt>
    2850:	d0000041 	adrp	x1, c000 <__data_start>
    2854:	aa1603e2 	mov	x2, x22
    2858:	b9001420 	str	w0, [x1, #20]
    285c:	aa1803e1 	mov	x1, x24
    2860:	2a1503e0 	mov	w0, w21
    2864:	97fffd3f 	bl	1d60 <getopt@plt>
    2868:	2a0003f3 	mov	w19, w0
    286c:	3100041f 	cmn	w0, #0x1
    2870:	54fffd21 	b.ne	2814 <benchmark_init+0x84>  // b.any
    2874:	d0000056 	adrp	x22, c000 <__data_start>
    2878:	b0000020 	adrp	x0, 7000 <__trunctfdf2+0x228>
    287c:	91076000 	add	x0, x0, #0x1d8
    2880:	940002e8 	bl	3420 <open_log_file>
    2884:	f90016c0 	str	x0, [x22, #40]
    2888:	b4000ae0 	cbz	x0, 29e4 <benchmark_init+0x254>
    288c:	b0000055 	adrp	x21, b000 <__FRAME_END__+0x147c>
    2890:	d0000057 	adrp	x23, c000 <__data_start>
    2894:	f947dea1 	ldr	x1, [x21, #4024]
    2898:	b9400021 	ldr	w1, [x1]
    289c:	7100043f 	cmp	w1, #0x1
    28a0:	540000c9 	b.ls	28b8 <benchmark_init+0x128>  // b.plast
    28a4:	910042e2 	add	x2, x23, #0x10
    28a8:	b0000021 	adrp	x1, 7000 <__trunctfdf2+0x228>
    28ac:	9107a021 	add	x1, x1, #0x1e8
    28b0:	b9400442 	ldr	w2, [x2, #4]
    28b4:	97fffde3 	bl	2040 <fprintf@plt>
    28b8:	aa1803e0 	mov	x0, x24
    28bc:	97fffd79 	bl	1ea0 <free@plt>
    28c0:	b94012e2 	ldr	w2, [x23, #16]
    28c4:	910042f8 	add	x24, x23, #0x10
    28c8:	52800000 	mov	w0, #0x0                   	// #0
    28cc:	9100a2d3 	add	x19, x22, #0x28
    28d0:	7100005f 	cmp	w2, #0x0
    28d4:	1100fc41 	add	w1, w2, #0x3f
    28d8:	1a82b021 	csel	w1, w1, w2, lt  // lt = tstop
    28dc:	13067c21 	asr	w1, w1, #6
    28e0:	b9000b01 	str	w1, [x24, #8]
    28e4:	97fffda7 	bl	1f80 <srand@plt>
    28e8:	b9400b18 	ldr	w24, [x24, #8]
    28ec:	91002260 	add	x0, x19, #0x8
    28f0:	a9008260 	stp	x0, x0, [x19, #8]
    28f4:	93407f19 	sxtw	x25, w24
    28f8:	91000720 	add	x0, x25, #0x1
    28fc:	d37ae400 	lsl	x0, x0, #6
    2900:	94000604 	bl	4110 <__wrap_malloc>
    2904:	f9000e60 	str	x0, [x19, #24]
    2908:	7100031f 	cmp	w24, #0x0
    290c:	54000b0d 	b.le	2a6c <benchmark_init+0x2dc>
    2910:	91002000 	add	x0, x0, #0x8
    2914:	52800001 	mov	w1, #0x0                   	// #0
    2918:	293f7c01 	stp	w1, wzr, [x0, #-8]
    291c:	11000421 	add	w1, w1, #0x1
    2920:	a9000000 	stp	x0, x0, [x0]
    2924:	6b01031f 	cmp	w24, w1
    2928:	91010000 	add	x0, x0, #0x40
    292c:	54ffff61 	b.ne	2918 <benchmark_init+0x188>  // b.any
    2930:	f947dea0 	ldr	x0, [x21, #4024]
    2934:	b9400000 	ldr	w0, [x0]
    2938:	7100041f 	cmp	w0, #0x1
    293c:	54000a28 	b.hi	2a80 <benchmark_init+0x2f0>  // b.pmore
    2940:	d37ef720 	lsl	x0, x25, #2
    2944:	940005f3 	bl	4110 <__wrap_malloc>
    2948:	aa0003f3 	mov	x19, x0
    294c:	d2800001 	mov	x1, #0x0                   	// #0
    2950:	b8217a61 	str	w1, [x19, x1, lsl #2]
    2954:	91000421 	add	x1, x1, #0x1
    2958:	6b01031f 	cmp	w24, w1
    295c:	54ffffac 	b.gt	2950 <benchmark_init+0x1c0>
    2960:	910042f7 	add	x23, x23, #0x10
    2964:	34000674 	cbz	w20, 2a30 <benchmark_init+0x2a0>
    2968:	b9400ae3 	ldr	w3, [x23, #8]
    296c:	7100007f 	cmp	w3, #0x0
    2970:	5400020d 	b.le	29b0 <benchmark_init+0x220>
    2974:	9100a2d6 	add	x22, x22, #0x28
    2978:	d2800000 	mov	x0, #0x0                   	// #0
    297c:	aa1603e5 	mov	x5, x22
    2980:	f9400ec6 	ldr	x6, [x22, #24]
    2984:	f8408ca2 	ldr	x2, [x5, #8]!
    2988:	aa0203e4 	mov	x4, x2
    298c:	b8a07a61 	ldrsw	x1, [x19, x0, lsl #2]
    2990:	91000400 	add	x0, x0, #0x1
    2994:	6b00007f 	cmp	w3, w0
    2998:	8b0118c1 	add	x1, x6, x1, lsl #6
    299c:	91002022 	add	x2, x1, #0x8
    29a0:	f9000482 	str	x2, [x4, #8]
    29a4:	a9009424 	stp	x4, x5, [x1, #8]
    29a8:	54ffff0c 	b.gt	2988 <benchmark_init+0x1f8>
    29ac:	f90006c2 	str	x2, [x22, #8]
    29b0:	f947deb5 	ldr	x21, [x21, #4024]
    29b4:	52800013 	mov	w19, #0x0                   	// #0
    29b8:	b94002a0 	ldr	w0, [x21]
    29bc:	71000c1f 	cmp	w0, #0x3
    29c0:	54000129 	b.ls	29e4 <benchmark_init+0x254>  // b.plast
    29c4:	b0000043 	adrp	x3, b000 <__FRAME_END__+0x147c>
    29c8:	b0000020 	adrp	x0, 7000 <__trunctfdf2+0x228>
    29cc:	d28001a2 	mov	x2, #0xd                   	// #13
    29d0:	91088000 	add	x0, x0, #0x220
    29d4:	f947e463 	ldr	x3, [x3, #4040]
    29d8:	d2800021 	mov	x1, #0x1                   	// #1
    29dc:	f9400063 	ldr	x3, [x3]
    29e0:	97fffd48 	bl	1f00 <fwrite@plt>
    29e4:	2a1303e0 	mov	w0, w19
    29e8:	a94153f3 	ldp	x19, x20, [sp, #16]
    29ec:	a9425bf5 	ldp	x21, x22, [sp, #32]
    29f0:	a94363f7 	ldp	x23, x24, [sp, #48]
    29f4:	a9446bf9 	ldp	x25, x26, [sp, #64]
    29f8:	f9402bfb 	ldr	x27, [sp, #80]
    29fc:	a8c67bfd 	ldp	x29, x30, [sp], #96
    2a00:	d65f03c0 	ret
    2a04:	7101ce7f 	cmp	w19, #0x73
    2a08:	1a9f1694 	csinc	w20, w20, wzr, ne  // ne = any
    2a0c:	17ffff7b 	b	27f8 <benchmark_init+0x68>
    2a10:	f9400360 	ldr	x0, [x27]
    2a14:	d0000057 	adrp	x23, c000 <__data_start>
    2a18:	52800002 	mov	w2, #0x0                   	// #0
    2a1c:	d2800001 	mov	x1, #0x0                   	// #0
    2a20:	97fffd14 	bl	1e70 <strtol@plt>
    2a24:	53165400 	lsl	w0, w0, #10
    2a28:	b90012e0 	str	w0, [x23, #16]
    2a2c:	17ffff73 	b	27f8 <benchmark_init+0x68>
    2a30:	d2800014 	mov	x20, #0x0                   	// #0
    2a34:	d503201f 	nop
    2a38:	b8747a78 	ldr	w24, [x19, x20, lsl #2]
    2a3c:	97fffcd5 	bl	1d90 <rand@plt>
    2a40:	b9400ae3 	ldr	w3, [x23, #8]
    2a44:	1ac30c01 	sdiv	w1, w0, w3
    2a48:	1b038020 	msub	w0, w1, w3, w0
    2a4c:	93407c00 	sxtw	x0, w0
    2a50:	b8607a61 	ldr	w1, [x19, x0, lsl #2]
    2a54:	b8347a61 	str	w1, [x19, x20, lsl #2]
    2a58:	91000694 	add	x20, x20, #0x1
    2a5c:	b8207a78 	str	w24, [x19, x0, lsl #2]
    2a60:	6b14007f 	cmp	w3, w20
    2a64:	54fffeac 	b.gt	2a38 <benchmark_init+0x2a8>
    2a68:	17ffffc1 	b	296c <benchmark_init+0x1dc>
    2a6c:	f947dea0 	ldr	x0, [x21, #4024]
    2a70:	b9400000 	ldr	w0, [x0]
    2a74:	7100041f 	cmp	w0, #0x1
    2a78:	54fff9c9 	b.ls	29b0 <benchmark_init+0x220>  // b.plast
    2a7c:	d503201f 	nop
    2a80:	f94016c0 	ldr	x0, [x22, #40]
    2a84:	2a1803e2 	mov	w2, w24
    2a88:	b0000021 	adrp	x1, 7000 <__trunctfdf2+0x228>
    2a8c:	9107e021 	add	x1, x1, #0x1f8
    2a90:	97fffd6c 	bl	2040 <fprintf@plt>
    2a94:	910042e0 	add	x0, x23, #0x10
    2a98:	b9400818 	ldr	w24, [x0, #8]
    2a9c:	937e7f00 	sbfiz	x0, x24, #2, #32
    2aa0:	9400059c 	bl	4110 <__wrap_malloc>
    2aa4:	7100031f 	cmp	w24, #0x0
    2aa8:	aa0003f3 	mov	x19, x0
    2aac:	54fff50c 	b.gt	294c <benchmark_init+0x1bc>
    2ab0:	17ffffc0 	b	29b0 <benchmark_init+0x220>
    2ab4:	aa1803e1 	mov	x1, x24
    2ab8:	2a1503e0 	mov	w0, w21
    2abc:	97ffff19 	bl	2720 <usage>

0000000000002ac0 <benchmark_execution>:
    2ac0:	a9bd7bfd 	stp	x29, x30, [sp, #-48]!
    2ac4:	52800000 	mov	w0, #0x0                   	// #0
    2ac8:	910003fd 	mov	x29, sp
    2acc:	a90153f3 	stp	x19, x20, [sp, #16]
    2ad0:	f90013f5 	str	x21, [sp, #32]
    2ad4:	d0000053 	adrp	x19, c000 <__data_start>
    2ad8:	9100a275 	add	x21, x19, #0x28
    2adc:	910082a1 	add	x1, x21, #0x20
    2ae0:	97fffc64 	bl	1c70 <clock_gettime@plt>
    2ae4:	d0000054 	adrp	x20, c000 <__data_start>
    2ae8:	91004280 	add	x0, x20, #0x10
    2aec:	b9400406 	ldr	w6, [x0, #4]
    2af0:	710000df 	cmp	w6, #0x0
    2af4:	5400030d 	b.le	2b54 <benchmark_execution+0x94>
    2af8:	f94006a7 	ldr	x7, [x21, #8]
    2afc:	52800005 	mov	w5, #0x0                   	// #0
    2b00:	f9401aa2 	ldr	x2, [x21, #48]
    2b04:	b9400804 	ldr	w4, [x0, #8]
    2b08:	52800000 	mov	w0, #0x0                   	// #0
    2b0c:	d503201f 	nop
    2b10:	7100009f 	cmp	w4, #0x0
    2b14:	5400014d 	b.le	2b3c <benchmark_execution+0x7c>
    2b18:	aa0703e1 	mov	x1, x7
    2b1c:	52800000 	mov	w0, #0x0                   	// #0
    2b20:	b89f8023 	ldursw	x3, [x1, #-8]
    2b24:	11000400 	add	w0, w0, #0x1
    2b28:	6b04001f 	cmp	w0, w4
    2b2c:	8b030042 	add	x2, x2, x3
    2b30:	f9400021 	ldr	x1, [x1]
    2b34:	54ffff61 	b.ne	2b20 <benchmark_execution+0x60>  // b.any
    2b38:	52800020 	mov	w0, #0x1                   	// #1
    2b3c:	110004a5 	add	w5, w5, #0x1
    2b40:	6b0600bf 	cmp	w5, w6
    2b44:	54fffe61 	b.ne	2b10 <benchmark_execution+0x50>  // b.any
    2b48:	34000060 	cbz	w0, 2b54 <benchmark_execution+0x94>
    2b4c:	9100a260 	add	x0, x19, #0x28
    2b50:	f9001802 	str	x2, [x0, #48]
    2b54:	9100a273 	add	x19, x19, #0x28
    2b58:	52800000 	mov	w0, #0x0                   	// #0
    2b5c:	9100e261 	add	x1, x19, #0x38
    2b60:	97fffc44 	bl	1c70 <clock_gettime@plt>
    2b64:	d2994002 	mov	x2, #0xca00                	// #51712
    2b68:	f2a77342 	movk	x2, #0x3b9a, lsl #16
    2b6c:	a9438e60 	ldp	x0, x3, [x19, #56]
    2b70:	91004294 	add	x20, x20, #0x10
    2b74:	f9401261 	ldr	x1, [x19, #32]
    2b78:	b9400a84 	ldr	w4, [x20, #8]
    2b7c:	f94013f5 	ldr	x21, [sp, #32]
    2b80:	9b028c21 	msub	x1, x1, x2, x3
    2b84:	f9401663 	ldr	x3, [x19, #40]
    2b88:	9b020400 	madd	x0, x0, x2, x1
    2b8c:	1e620082 	scvtf	d2, w4
    2b90:	b9400681 	ldr	w1, [x20, #4]
    2b94:	cb030000 	sub	x0, x0, x3
    2b98:	9e630000 	ucvtf	d0, x0
    2b9c:	1e620021 	scvtf	d1, w1
    2ba0:	1e621800 	fdiv	d0, d0, d2
    2ba4:	1e611800 	fdiv	d0, d0, d1
    2ba8:	fd002660 	str	d0, [x19, #72]
    2bac:	a94153f3 	ldp	x19, x20, [sp, #16]
    2bb0:	a8c37bfd 	ldp	x29, x30, [sp], #48
    2bb4:	d65f03c0 	ret
    2bb8:	d503201f 	nop
    2bbc:	d503201f 	nop

0000000000002bc0 <benchmark_log_data>:
    2bc0:	d0000040 	adrp	x0, c000 <__data_start>
    2bc4:	fd403800 	ldr	d0, [x0, #112]
    2bc8:	1e624000 	fcvt	s0, d0
    2bcc:	d65f03c0 	ret

0000000000002bd0 <benchmark_teardown>:
    2bd0:	a9bd7bfd 	stp	x29, x30, [sp, #-48]!
    2bd4:	910003fd 	mov	x29, sp
    2bd8:	a90153f3 	stp	x19, x20, [sp, #16]
    2bdc:	d0000054 	adrp	x20, c000 <__data_start>
    2be0:	91004294 	add	x20, x20, #0x10
    2be4:	d0000053 	adrp	x19, c000 <__data_start>
    2be8:	b9400680 	ldr	w0, [x20, #4]
    2bec:	34000100 	cbz	w0, 2c0c <benchmark_teardown+0x3c>
    2bf0:	f9401660 	ldr	x0, [x19, #40]
    2bf4:	9100a273 	add	x19, x19, #0x28
    2bf8:	9400023a 	bl	34e0 <close_log_file>
    2bfc:	f9400e60 	ldr	x0, [x19, #24]
    2c00:	a94153f3 	ldp	x19, x20, [sp, #16]
    2c04:	a8c37bfd 	ldp	x29, x30, [sp], #48
    2c08:	17fffca6 	b	1ea0 <free@plt>
    2c0c:	f90013f5 	str	x21, [sp, #32]
    2c10:	9100a275 	add	x21, x19, #0x28
    2c14:	9100e2a1 	add	x1, x21, #0x38
    2c18:	97fffc16 	bl	1c70 <clock_gettime@plt>
    2c1c:	29408285 	ldp	w5, w0, [x20, #4]
    2c20:	d2994003 	mov	x3, #0xca00                	// #51712
    2c24:	f2a77343 	movk	x3, #0x3b9a, lsl #16
    2c28:	b0000041 	adrp	x1, b000 <__FRAME_END__+0x147c>
    2c2c:	1e620001 	scvtf	d1, w0
    2c30:	1e6200a2 	scvtf	d2, w5
    2c34:	a94392a0 	ldp	x0, x4, [x21, #56]
    2c38:	f94012a2 	ldr	x2, [x21, #32]
    2c3c:	f947dc34 	ldr	x20, [x1, #4024]
    2c40:	9b039042 	msub	x2, x2, x3, x4
    2c44:	f94016a4 	ldr	x4, [x21, #40]
    2c48:	9b030800 	madd	x0, x0, x3, x2
    2c4c:	cb040000 	sub	x0, x0, x4
    2c50:	9e630000 	ucvtf	d0, x0
    2c54:	b9400280 	ldr	w0, [x20]
    2c58:	7100041f 	cmp	w0, #0x1
    2c5c:	1e611801 	fdiv	d1, d0, d1
    2c60:	1e621821 	fdiv	d1, d1, d2
    2c64:	fd0026a1 	str	d1, [x21, #72]
    2c68:	54000128 	b.hi	2c8c <benchmark_teardown+0xbc>  // b.pmore
    2c6c:	f9401660 	ldr	x0, [x19, #40]
    2c70:	9100a273 	add	x19, x19, #0x28
    2c74:	f94013f5 	ldr	x21, [sp, #32]
    2c78:	9400021a 	bl	34e0 <close_log_file>
    2c7c:	f9400e60 	ldr	x0, [x19, #24]
    2c80:	a94153f3 	ldp	x19, x20, [sp, #16]
    2c84:	a8c37bfd 	ldp	x29, x30, [sp], #48
    2c88:	17fffc86 	b	1ea0 <free@plt>
    2c8c:	d2c80000 	mov	x0, #0x400000000000        	// #70368744177664
    2c90:	b0000021 	adrp	x1, 7000 <__trunctfdf2+0x228>
    2c94:	9108c021 	add	x1, x1, #0x230
    2c98:	f2e811e0 	movk	x0, #0x408f, lsl #48
    2c9c:	9e670002 	fmov	d2, x0
    2ca0:	f9401660 	ldr	x0, [x19, #40]
    2ca4:	1e621800 	fdiv	d0, d0, d2
    2ca8:	97fffce6 	bl	2040 <fprintf@plt>
    2cac:	b9400280 	ldr	w0, [x20]
    2cb0:	7100041f 	cmp	w0, #0x1
    2cb4:	54fffdc9 	b.ls	2c6c <benchmark_teardown+0x9c>  // b.plast
    2cb8:	d2d9aca0 	mov	x0, #0xcd6500000000        	// #225833675390976
    2cbc:	fd4026a3 	ldr	d3, [x21, #72]
    2cc0:	f2e845a0 	movk	x0, #0x422d, lsl #48
    2cc4:	9e670002 	fmov	d2, x0
    2cc8:	d2c80000 	mov	x0, #0x400000000000        	// #70368744177664
    2ccc:	b0000021 	adrp	x1, 7000 <__trunctfdf2+0x228>
    2cd0:	1e631842 	fdiv	d2, d2, d3
    2cd4:	f2e81de0 	movk	x0, #0x40ef, lsl #48
    2cd8:	9e670000 	fmov	d0, x0
    2cdc:	d2e7ea00 	mov	x0, #0x3f50000000000000    	// #4562146422526312448
    2ce0:	9e670001 	fmov	d1, x0
    2ce4:	91096021 	add	x1, x1, #0x258
    2ce8:	1e631800 	fdiv	d0, d0, d3
    2cec:	f9401660 	ldr	x0, [x19, #40]
    2cf0:	1e610842 	fmul	d2, d2, d1
    2cf4:	1e610841 	fmul	d1, d2, d1
    2cf8:	97fffcd2 	bl	2040 <fprintf@plt>
    2cfc:	b9400280 	ldr	w0, [x20]
    2d00:	7100041f 	cmp	w0, #0x1
    2d04:	54fffb49 	b.ls	2c6c <benchmark_teardown+0x9c>  // b.plast
    2d08:	f9401660 	ldr	x0, [x19, #40]
    2d0c:	b0000021 	adrp	x1, 7000 <__trunctfdf2+0x228>
    2d10:	9109e021 	add	x1, x1, #0x278
    2d14:	f9401aa2 	ldr	x2, [x21, #48]
    2d18:	97fffcca 	bl	2040 <fprintf@plt>
    2d1c:	f9401660 	ldr	x0, [x19, #40]
    2d20:	9100a273 	add	x19, x19, #0x28
    2d24:	f94013f5 	ldr	x21, [sp, #32]
    2d28:	940001ee 	bl	34e0 <close_log_file>
    2d2c:	f9400e60 	ldr	x0, [x19, #24]
    2d30:	a94153f3 	ldp	x19, x20, [sp, #16]
    2d34:	a8c37bfd 	ldp	x29, x30, [sp], #48
    2d38:	17fffc5a 	b	1ea0 <free@plt>
    2d3c:	d503201f 	nop

0000000000002d40 <get_rdtsc>:
    2d40:	d53be040 	mrs	x0, cntvct_el0
    2d44:	d65f03c0 	ret
    2d48:	d503201f 	nop
    2d4c:	d503201f 	nop

0000000000002d50 <get_timestamp>:
    2d50:	a9bc7bfd 	stp	x29, x30, [sp, #-64]!
    2d54:	b0000041 	adrp	x1, b000 <__FRAME_END__+0x147c>
    2d58:	528012a0 	mov	w0, #0x95                  	// #149
    2d5c:	910003fd 	mov	x29, sp
    2d60:	f947f421 	ldr	x1, [x1, #4072]
    2d64:	f9000bf3 	str	x19, [sp, #16]
    2d68:	9100a3f3 	add	x19, sp, #0x28
    2d6c:	f9400022 	ldr	x2, [x1]
    2d70:	f9001fe2 	str	x2, [sp, #56]
    2d74:	d2800002 	mov	x2, #0x0                   	// #0
    2d78:	97fffc7e 	bl	1f70 <sysconf@plt>
    2d7c:	f100001f 	cmp	x0, #0x0
    2d80:	540000ad 	b.le	2d94 <get_timestamp+0x44>
    2d84:	aa1303e1 	mov	x1, x19
    2d88:	52800020 	mov	w0, #0x1                   	// #1
    2d8c:	97fffbb9 	bl	1c70 <clock_gettime@plt>
    2d90:	34000340 	cbz	w0, 2df8 <get_timestamp+0xa8>
    2d94:	aa1303e0 	mov	x0, x19
    2d98:	d2800001 	mov	x1, #0x0                   	// #0
    2d9c:	97fffbed 	bl	1d50 <gettimeofday@plt>
    2da0:	6f00e400 	movi	v0.2d, #0x0
    2da4:	34000160 	cbz	w0, 2dd0 <get_timestamp+0x80>
    2da8:	b0000040 	adrp	x0, b000 <__FRAME_END__+0x147c>
    2dac:	f947f400 	ldr	x0, [x0, #4072]
    2db0:	f9401fe2 	ldr	x2, [sp, #56]
    2db4:	f9400001 	ldr	x1, [x0]
    2db8:	eb010042 	subs	x2, x2, x1
    2dbc:	d2800001 	mov	x1, #0x0                   	// #0
    2dc0:	54000301 	b.ne	2e20 <get_timestamp+0xd0>  // b.any
    2dc4:	f9400bf3 	ldr	x19, [sp, #16]
    2dc8:	a8c47bfd 	ldp	x29, x30, [sp], #64
    2dcc:	d65f03c0 	ret
    2dd0:	6d4283e2 	ldp	d2, d0, [sp, #40]
    2dd4:	d2d09000 	mov	x0, #0x848000000000        	// #145685290680320
    2dd8:	f2e825c0 	movk	x0, #0x412e, lsl #48
    2ddc:	9e670003 	fmov	d3, x0
    2de0:	5e61d801 	scvtf	d1, d0
    2de4:	5e61d842 	scvtf	d2, d2
    2de8:	1e631820 	fdiv	d0, d1, d3
    2dec:	1e622800 	fadd	d0, d0, d2
    2df0:	94000fbc 	bl	6ce0 <__extenddftf2>
    2df4:	17ffffed 	b	2da8 <get_timestamp+0x58>
    2df8:	6d4283e1 	ldp	d1, d0, [sp, #40]
    2dfc:	d2d9aca0 	mov	x0, #0xcd6500000000        	// #225833675390976
    2e00:	f2e839a0 	movk	x0, #0x41cd, lsl #48
    2e04:	9e670002 	fmov	d2, x0
    2e08:	5e61d800 	scvtf	d0, d0
    2e0c:	5e61d821 	scvtf	d1, d1
    2e10:	1e621800 	fdiv	d0, d0, d2
    2e14:	1e612800 	fadd	d0, d0, d1
    2e18:	94000fb2 	bl	6ce0 <__extenddftf2>
    2e1c:	17ffffe3 	b	2da8 <get_timestamp+0x58>
    2e20:	97fffbe4 	bl	1db0 <__stack_chk_fail@plt>
    2e24:	d503201f 	nop
    2e28:	d503201f 	nop
    2e2c:	d503201f 	nop

0000000000002e30 <print_timing>:
    2e30:	4ea11c24 	mov	v4.16b, v1.16b
    2e34:	a9b57bfd 	stp	x29, x30, [sp, #-176]!
    2e38:	6f00e401 	movi	v1.2d, #0x0
    2e3c:	910003fd 	mov	x29, sp
    2e40:	a90153f3 	stp	x19, x20, [sp, #16]
    2e44:	aa0103f3 	mov	x19, x1
    2e48:	aa0303f4 	mov	x20, x3
    2e4c:	a9025bf5 	stp	x21, x22, [sp, #32]
    2e50:	aa0403f5 	mov	x21, x4
    2e54:	a90363f7 	stp	x23, x24, [sp, #48]
    2e58:	aa0003f8 	mov	x24, x0
    2e5c:	aa0203f7 	mov	x23, x2
    2e60:	f90023f9 	str	x25, [sp, #64]
    2e64:	6d0527e8 	stp	d8, d9, [sp, #80]
    2e68:	3d801be0 	str	q0, [sp, #96]
    2e6c:	4ea21c40 	mov	v0.16b, v2.16b
    2e70:	3d801fe2 	str	q2, [sp, #112]
    2e74:	3d8023e3 	str	q3, [sp, #128]
    2e78:	3d8027e4 	str	q4, [sp, #144]
    2e7c:	94000c3f 	bl	5f78 <__getf2>
    2e80:	7100001f 	cmp	w0, #0x0
    2e84:	540000cd 	b.le	2e9c <print_timing+0x6c>
    2e88:	3dc01fe0 	ldr	q0, [sp, #112]
    2e8c:	3dc023e1 	ldr	q1, [sp, #128]
    2e90:	94000c8a 	bl	60b8 <__letf2>
    2e94:	7100001f 	cmp	w0, #0x0
    2e98:	540008ed 	b.le	2fb4 <print_timing+0x184>
    2e9c:	52800019 	mov	w25, #0x0                   	// #0
    2ea0:	3dc01be1 	ldr	q1, [sp, #96]
    2ea4:	3dc01fe0 	ldr	q0, [sp, #112]
    2ea8:	94000c34 	bl	5f78 <__getf2>
    2eac:	7100001f 	cmp	w0, #0x0
    2eb0:	540007ed 	b.le	2fac <print_timing+0x17c>
    2eb4:	3dc01be1 	ldr	q1, [sp, #96]
    2eb8:	3dc01fe0 	ldr	q0, [sp, #112]
    2ebc:	94000ccf 	bl	61f8 <__subtf3>
    2ec0:	3d802be0 	str	q0, [sp, #160]
    2ec4:	eb130296 	subs	x22, x20, x19
    2ec8:	3dc01be0 	ldr	q0, [sp, #96]
    2ecc:	3dc027e1 	ldr	q1, [sp, #144]
    2ed0:	9a9f82d6 	csel	x22, x22, xzr, hi  // hi = pmore
    2ed4:	94000c79 	bl	60b8 <__letf2>
    2ed8:	2f00e409 	movi	d9, #0x0
    2edc:	36f80120 	tbz	w0, #31, 2f00 <print_timing+0xd0>
    2ee0:	3dc01be1 	ldr	q1, [sp, #96]
    2ee4:	3dc027e0 	ldr	q0, [sp, #144]
    2ee8:	94000cc4 	bl	61f8 <__subtf3>
    2eec:	4ea01c01 	mov	v1.16b, v0.16b
    2ef0:	3dc02be0 	ldr	q0, [sp, #160]
    2ef4:	940009f5 	bl	56c8 <__divtf3>
    2ef8:	94000fb8 	bl	6dd8 <__trunctfdf2>
    2efc:	1e604009 	fmov	d9, d0
    2f00:	3dc01be1 	ldr	q1, [sp, #96]
    2f04:	3dc023e0 	ldr	q0, [sp, #128]
    2f08:	94000c1c 	bl	5f78 <__getf2>
    2f0c:	7100001f 	cmp	w0, #0x0
    2f10:	540003ad 	b.le	2f84 <print_timing+0x154>
    2f14:	3dc01be1 	ldr	q1, [sp, #96]
    2f18:	3dc023e0 	ldr	q0, [sp, #128]
    2f1c:	94000cb7 	bl	61f8 <__subtf3>
    2f20:	4ea01c01 	mov	v1.16b, v0.16b
    2f24:	3dc02be0 	ldr	q0, [sp, #160]
    2f28:	940009e8 	bl	56c8 <__divtf3>
    2f2c:	94000fab 	bl	6dd8 <__trunctfdf2>
    2f30:	1e604008 	fmov	d8, d0
    2f34:	2f00e402 	movi	d2, #0x0
    2f38:	eb1302bf 	cmp	x21, x19
    2f3c:	540002a8 	b.hi	2f90 <print_timing+0x160>  // b.pmore
    2f40:	1e602118 	fcmpe	d8, #0.0
    2f44:	54001229 	b.ls	3188 <print_timing+0x358>  // b.plast
    2f48:	d0000040 	adrp	x0, c000 <__data_start>
    2f4c:	b9401c01 	ldr	w1, [x0, #28]
    2f50:	71000c3f 	cmp	w1, #0x3
    2f54:	54000a80 	b.eq	30a4 <print_timing+0x274>  // b.none
    2f58:	7100103f 	cmp	w1, #0x4
    2f5c:	54000620 	b.eq	3020 <print_timing+0x1f0>  // b.none
    2f60:	7100083f 	cmp	w1, #0x2
    2f64:	54000300 	b.eq	2fc4 <print_timing+0x194>  // b.none
    2f68:	a94153f3 	ldp	x19, x20, [sp, #16]
    2f6c:	a9425bf5 	ldp	x21, x22, [sp, #32]
    2f70:	a94363f7 	ldp	x23, x24, [sp, #48]
    2f74:	f94023f9 	ldr	x25, [sp, #64]
    2f78:	6d4527e8 	ldp	d8, d9, [sp, #80]
    2f7c:	a8cb7bfd 	ldp	x29, x30, [sp], #176
    2f80:	d65f03c0 	ret
    2f84:	2f00e408 	movi	d8, #0x0
    2f88:	eb1302bf 	cmp	x21, x19
    2f8c:	54fffde9 	b.ls	2f48 <print_timing+0x118>  // b.plast
    2f90:	9e6302c2 	ucvtf	d2, x22
    2f94:	2f00e400 	movi	d0, #0x0
    2f98:	cb1302a0 	sub	x0, x21, x19
    2f9c:	9e630003 	ucvtf	d3, x0
    2fa0:	1e602842 	fadd	d2, d2, d0
    2fa4:	1e631842 	fdiv	d2, d2, d3
    2fa8:	17ffffe6 	b	2f40 <print_timing+0x110>
    2fac:	a90a7fff 	stp	xzr, xzr, [sp, #160]
    2fb0:	17ffffc5 	b	2ec4 <print_timing+0x94>
    2fb4:	f100029f 	cmp	x20, #0x0
    2fb8:	fa551282 	ccmp	x20, x21, #0x2, ne  // ne = any
    2fbc:	1a9f87f9 	cset	w25, ls  // ls = plast
    2fc0:	17ffffb8 	b	2ea0 <print_timing+0x70>
    2fc4:	1e604106 	fmov	d6, d8
    2fc8:	1e604125 	fmov	d5, d9
    2fcc:	2a1903e7 	mov	w7, w25
    2fd0:	aa1603e6 	mov	x6, x22
    2fd4:	aa1503e5 	mov	x5, x21
    2fd8:	aa1403e4 	mov	x4, x20
    2fdc:	aa1703e3 	mov	x3, x23
    2fe0:	aa1303e2 	mov	x2, x19
    2fe4:	aa1803e0 	mov	x0, x24
    2fe8:	3dc01be0 	ldr	q0, [sp, #96]
    2fec:	a94153f3 	ldp	x19, x20, [sp, #16]
    2ff0:	b0000021 	adrp	x1, 7000 <__trunctfdf2+0x228>
    2ff4:	9110a021 	add	x1, x1, #0x428
    2ff8:	3dc01fe2 	ldr	q2, [sp, #112]
    2ffc:	a9425bf5 	ldp	x21, x22, [sp, #32]
    3000:	a94363f7 	ldp	x23, x24, [sp, #48]
    3004:	f94023f9 	ldr	x25, [sp, #64]
    3008:	6d4527e8 	ldp	d8, d9, [sp, #80]
    300c:	3dc023e3 	ldr	q3, [sp, #128]
    3010:	3dc027e1 	ldr	q1, [sp, #144]
    3014:	3dc02be4 	ldr	q4, [sp, #160]
    3018:	a8cb7bfd 	ldp	x29, x30, [sp], #176
    301c:	17fffc09 	b	2040 <fprintf@plt>
    3020:	6f00e401 	movi	v1.2d, #0x0
    3024:	3dc01fe0 	ldr	q0, [sp, #112]
    3028:	94000b94 	bl	5e78 <__eqtf2>
    302c:	35000680 	cbnz	w0, 30fc <print_timing+0x2cc>
    3030:	6f00e401 	movi	v1.2d, #0x0
    3034:	3dc023e0 	ldr	q0, [sp, #128]
    3038:	94000b90 	bl	5e78 <__eqtf2>
    303c:	7100001f 	cmp	w0, #0x0
    3040:	1a9f07e1 	cset	w1, ne  // ne = any
    3044:	f10002bf 	cmp	x21, #0x0
    3048:	1a9f07e0 	cset	w0, ne  // ne = any
    304c:	2a010000 	orr	w0, w0, w1
    3050:	37000a00 	tbnz	w0, #0, 3190 <print_timing+0x360>
    3054:	6f00e401 	movi	v1.2d, #0x0
    3058:	3dc01be0 	ldr	q0, [sp, #96]
    305c:	94000b87 	bl	5e78 <__eqtf2>
    3060:	7100001f 	cmp	w0, #0x0
    3064:	1a9f07e1 	cset	w1, ne  // ne = any
    3068:	f100027f 	cmp	x19, #0x0
    306c:	1a9f07e0 	cset	w0, ne  // ne = any
    3070:	2a010000 	orr	w0, w0, w1
    3074:	3607f7a0 	tbz	w0, #0, 2f68 <print_timing+0x138>
    3078:	aa1303e1 	mov	x1, x19
    307c:	3dc01be0 	ldr	q0, [sp, #96]
    3080:	a94153f3 	ldp	x19, x20, [sp, #16]
    3084:	90000020 	adrp	x0, 7000 <__trunctfdf2+0x228>
    3088:	91100000 	add	x0, x0, #0x400
    308c:	a9425bf5 	ldp	x21, x22, [sp, #32]
    3090:	a94363f7 	ldp	x23, x24, [sp, #48]
    3094:	f94023f9 	ldr	x25, [sp, #64]
    3098:	6d4527e8 	ldp	d8, d9, [sp, #80]
    309c:	a8cb7bfd 	ldp	x29, x30, [sp], #176
    30a0:	17fffbc8 	b	1fc0 <printf@plt>
    30a4:	1e604106 	fmov	d6, d8
    30a8:	1e604125 	fmov	d5, d9
    30ac:	2a1903e6 	mov	w6, w25
    30b0:	aa1603e5 	mov	x5, x22
    30b4:	aa1503e4 	mov	x4, x21
    30b8:	aa1403e3 	mov	x3, x20
    30bc:	aa1703e2 	mov	x2, x23
    30c0:	aa1303e1 	mov	x1, x19
    30c4:	a94153f3 	ldp	x19, x20, [sp, #16]
    30c8:	90000020 	adrp	x0, 7000 <__trunctfdf2+0x228>
    30cc:	9110a000 	add	x0, x0, #0x428
    30d0:	3dc01be0 	ldr	q0, [sp, #96]
    30d4:	a9425bf5 	ldp	x21, x22, [sp, #32]
    30d8:	a94363f7 	ldp	x23, x24, [sp, #48]
    30dc:	f94023f9 	ldr	x25, [sp, #64]
    30e0:	6d4527e8 	ldp	d8, d9, [sp, #80]
    30e4:	3dc01fe2 	ldr	q2, [sp, #112]
    30e8:	3dc023e3 	ldr	q3, [sp, #128]
    30ec:	3dc027e1 	ldr	q1, [sp, #144]
    30f0:	3dc02be4 	ldr	q4, [sp, #160]
    30f4:	a8cb7bfd 	ldp	x29, x30, [sp], #176
    30f8:	17fffbb2 	b	1fc0 <printf@plt>
    30fc:	90000020 	adrp	x0, 7000 <__trunctfdf2+0x228>
    3100:	910a2000 	add	x0, x0, #0x288
    3104:	97fffb4f 	bl	1e40 <puts@plt>
    3108:	3dc01be0 	ldr	q0, [sp, #96]
    310c:	aa1703e2 	mov	x2, x23
    3110:	3dc027e1 	ldr	q1, [sp, #144]
    3114:	aa1303e1 	mov	x1, x19
    3118:	90000020 	adrp	x0, 7000 <__trunctfdf2+0x228>
    311c:	910a6000 	add	x0, x0, #0x298
    3120:	97fffba8 	bl	1fc0 <printf@plt>
    3124:	3dc01fe0 	ldr	q0, [sp, #112]
    3128:	aa1403e1 	mov	x1, x20
    312c:	90000020 	adrp	x0, 7000 <__trunctfdf2+0x228>
    3130:	910c0000 	add	x0, x0, #0x300
    3134:	97fffba3 	bl	1fc0 <printf@plt>
    3138:	3dc023e0 	ldr	q0, [sp, #128]
    313c:	2a1903e2 	mov	w2, w25
    3140:	aa1503e1 	mov	x1, x21
    3144:	52800023 	mov	w3, #0x1                   	// #1
    3148:	90000020 	adrp	x0, 7000 <__trunctfdf2+0x228>
    314c:	910cc000 	add	x0, x0, #0x330
    3150:	97fffb9c 	bl	1fc0 <printf@plt>
    3154:	1e604102 	fmov	d2, d8
    3158:	1e604121 	fmov	d1, d9
    315c:	aa1603e1 	mov	x1, x22
    3160:	a94153f3 	ldp	x19, x20, [sp, #16]
    3164:	90000020 	adrp	x0, 7000 <__trunctfdf2+0x228>
    3168:	910e0000 	add	x0, x0, #0x380
    316c:	3dc02be0 	ldr	q0, [sp, #160]
    3170:	a9425bf5 	ldp	x21, x22, [sp, #32]
    3174:	a94363f7 	ldp	x23, x24, [sp, #48]
    3178:	f94023f9 	ldr	x25, [sp, #64]
    317c:	6d4527e8 	ldp	d8, d9, [sp, #80]
    3180:	a8cb7bfd 	ldp	x29, x30, [sp], #176
    3184:	17fffb8f 	b	1fc0 <printf@plt>
    3188:	1e604048 	fmov	d8, d2
    318c:	17ffff6f 	b	2f48 <print_timing+0x118>
    3190:	3dc023e0 	ldr	q0, [sp, #128]
    3194:	aa1503e1 	mov	x1, x21
    3198:	90000020 	adrp	x0, 7000 <__trunctfdf2+0x228>
    319c:	910f6000 	add	x0, x0, #0x3d8
    31a0:	97fffb88 	bl	1fc0 <printf@plt>
    31a4:	17ffffac 	b	3054 <print_timing+0x224>
    31a8:	d503201f 	nop
    31ac:	d503201f 	nop

00000000000031b0 <print_performance_counters>:
    31b0:	a9bb7bfd 	stp	x29, x30, [sp, #-80]!
    31b4:	910003fd 	mov	x29, sp
    31b8:	a90153f3 	stp	x19, x20, [sp, #16]
    31bc:	cb0100f3 	sub	x19, x7, x1
    31c0:	a9025bf5 	stp	x21, x22, [sp, #32]
    31c4:	9e630263 	ucvtf	d3, x19
    31c8:	a94557f4 	ldp	x20, x21, [sp, #80]
    31cc:	a90363f7 	stp	x23, x24, [sp, #48]
    31d0:	f94033f6 	ldr	x22, [sp, #96]
    31d4:	f9403be7 	ldr	x7, [sp, #112]
    31d8:	cb020294 	sub	x20, x20, x2
    31dc:	cb0302b5 	sub	x21, x21, x3
    31e0:	cb0402d6 	sub	x22, x22, x4
    31e4:	9e630280 	ucvtf	d0, x20
    31e8:	b0000041 	adrp	x1, c000 <__data_start>
    31ec:	b9401c22 	ldr	w2, [x1, #28]
    31f0:	9e6302c1 	ucvtf	d1, x22
    31f4:	9e6302a2 	ucvtf	d2, x21
    31f8:	cb0600f8 	sub	x24, x7, x6
    31fc:	f94037e3 	ldr	x3, [sp, #104]
    3200:	71000c5f 	cmp	w2, #0x3
    3204:	1e631800 	fdiv	d0, d0, d3
    3208:	1e621821 	fdiv	d1, d1, d2
    320c:	cb050077 	sub	x23, x3, x5
    3210:	54000140 	b.eq	3238 <print_performance_counters+0x88>  // b.none
    3214:	7100105f 	cmp	w2, #0x4
    3218:	54000440 	b.eq	32a0 <print_performance_counters+0xf0>  // b.none
    321c:	7100085f 	cmp	w2, #0x2
    3220:	54000260 	b.eq	326c <print_performance_counters+0xbc>  // b.none
    3224:	a94153f3 	ldp	x19, x20, [sp, #16]
    3228:	a9425bf5 	ldp	x21, x22, [sp, #32]
    322c:	a94363f7 	ldp	x23, x24, [sp, #48]
    3230:	a8c57bfd 	ldp	x29, x30, [sp], #80
    3234:	d65f03c0 	ret
    3238:	aa1803e6 	mov	x6, x24
    323c:	aa1703e5 	mov	x5, x23
    3240:	aa1603e4 	mov	x4, x22
    3244:	aa1503e3 	mov	x3, x21
    3248:	aa1403e2 	mov	x2, x20
    324c:	aa1303e1 	mov	x1, x19
    3250:	a94153f3 	ldp	x19, x20, [sp, #16]
    3254:	90000020 	adrp	x0, 7000 <__trunctfdf2+0x228>
    3258:	91172000 	add	x0, x0, #0x5c8
    325c:	a9425bf5 	ldp	x21, x22, [sp, #32]
    3260:	a94363f7 	ldp	x23, x24, [sp, #48]
    3264:	a8c57bfd 	ldp	x29, x30, [sp], #80
    3268:	17fffb56 	b	1fc0 <printf@plt>
    326c:	aa1803e7 	mov	x7, x24
    3270:	aa1703e6 	mov	x6, x23
    3274:	aa1603e5 	mov	x5, x22
    3278:	aa1503e4 	mov	x4, x21
    327c:	aa1403e3 	mov	x3, x20
    3280:	aa1303e2 	mov	x2, x19
    3284:	a94153f3 	ldp	x19, x20, [sp, #16]
    3288:	90000021 	adrp	x1, 7000 <__trunctfdf2+0x228>
    328c:	91172021 	add	x1, x1, #0x5c8
    3290:	a9425bf5 	ldp	x21, x22, [sp, #32]
    3294:	a94363f7 	ldp	x23, x24, [sp, #48]
    3298:	a8c57bfd 	ldp	x29, x30, [sp], #80
    329c:	17fffb69 	b	2040 <fprintf@plt>
    32a0:	90000020 	adrp	x0, 7000 <__trunctfdf2+0x228>
    32a4:	9111c000 	add	x0, x0, #0x470
    32a8:	6d0407e0 	stp	d0, d1, [sp, #64]
    32ac:	97fffae5 	bl	1e40 <puts@plt>
    32b0:	aa1303e1 	mov	x1, x19
    32b4:	90000020 	adrp	x0, 7000 <__trunctfdf2+0x228>
    32b8:	91122000 	add	x0, x0, #0x488
    32bc:	97fffb41 	bl	1fc0 <printf@plt>
    32c0:	aa1403e1 	mov	x1, x20
    32c4:	90000020 	adrp	x0, 7000 <__trunctfdf2+0x228>
    32c8:	9112a000 	add	x0, x0, #0x4a8
    32cc:	97fffb3d 	bl	1fc0 <printf@plt>
    32d0:	fd4023e0 	ldr	d0, [sp, #64]
    32d4:	90000020 	adrp	x0, 7000 <__trunctfdf2+0x228>
    32d8:	91132000 	add	x0, x0, #0x4c8
    32dc:	97fffb39 	bl	1fc0 <printf@plt>
    32e0:	90000020 	adrp	x0, 7000 <__trunctfdf2+0x228>
    32e4:	9113e000 	add	x0, x0, #0x4f8
    32e8:	97fffad6 	bl	1e40 <puts@plt>
    32ec:	aa1503e1 	mov	x1, x21
    32f0:	90000020 	adrp	x0, 7000 <__trunctfdf2+0x228>
    32f4:	91144000 	add	x0, x0, #0x510
    32f8:	97fffb32 	bl	1fc0 <printf@plt>
    32fc:	aa1603e1 	mov	x1, x22
    3300:	90000020 	adrp	x0, 7000 <__trunctfdf2+0x228>
    3304:	9114c000 	add	x0, x0, #0x530
    3308:	97fffb2e 	bl	1fc0 <printf@plt>
    330c:	fd4027e1 	ldr	d1, [sp, #72]
    3310:	90000020 	adrp	x0, 7000 <__trunctfdf2+0x228>
    3314:	91152000 	add	x0, x0, #0x548
    3318:	1e604020 	fmov	d0, d1
    331c:	97fffb29 	bl	1fc0 <printf@plt>
    3320:	90000020 	adrp	x0, 7000 <__trunctfdf2+0x228>
    3324:	9115c000 	add	x0, x0, #0x570
    3328:	97fffac6 	bl	1e40 <puts@plt>
    332c:	aa1703e1 	mov	x1, x23
    3330:	90000020 	adrp	x0, 7000 <__trunctfdf2+0x228>
    3334:	9115e000 	add	x0, x0, #0x578
    3338:	97fffb22 	bl	1fc0 <printf@plt>
    333c:	aa1803e1 	mov	x1, x24
    3340:	90000020 	adrp	x0, 7000 <__trunctfdf2+0x228>
    3344:	a94153f3 	ldp	x19, x20, [sp, #16]
    3348:	9116c000 	add	x0, x0, #0x5b0
    334c:	a9425bf5 	ldp	x21, x22, [sp, #32]
    3350:	a94363f7 	ldp	x23, x24, [sp, #48]
    3354:	a8c57bfd 	ldp	x29, x30, [sp], #80
    3358:	17fffb1a 	b	1fc0 <printf@plt>
    335c:	d503201f 	nop

0000000000003360 <print_extra_data>:
    3360:	b0000041 	adrp	x1, c000 <__data_start>
    3364:	b9401c21 	ldr	w1, [x1, #28]
    3368:	71000c3f 	cmp	w1, #0x3
    336c:	540000c0 	b.eq	3384 <print_extra_data+0x24>  // b.none
    3370:	7100103f 	cmp	w1, #0x4
    3374:	54000180 	b.eq	33a4 <print_extra_data+0x44>  // b.none
    3378:	7100083f 	cmp	w1, #0x2
    337c:	540000c0 	b.eq	3394 <print_extra_data+0x34>  // b.none
    3380:	d65f03c0 	ret
    3384:	1e22c000 	fcvt	d0, s0
    3388:	90000020 	adrp	x0, 7000 <__trunctfdf2+0x228>
    338c:	91182000 	add	x0, x0, #0x608
    3390:	17fffb0c 	b	1fc0 <printf@plt>
    3394:	1e22c000 	fcvt	d0, s0
    3398:	90000021 	adrp	x1, 7000 <__trunctfdf2+0x228>
    339c:	91182021 	add	x1, x1, #0x608
    33a0:	17fffb28 	b	2040 <fprintf@plt>
    33a4:	1e22c000 	fcvt	d0, s0
    33a8:	90000020 	adrp	x0, 7000 <__trunctfdf2+0x228>
    33ac:	9117a000 	add	x0, x0, #0x5e8
    33b0:	17fffb04 	b	1fc0 <printf@plt>
    33b4:	d503201f 	nop
    33b8:	d503201f 	nop
    33bc:	d503201f 	nop

00000000000033c0 <print_statistics>:
    33c0:	a9be7bfd 	stp	x29, x30, [sp, #-32]!
    33c4:	910003fd 	mov	x29, sp
    33c8:	f9000bf3 	str	x19, [sp, #16]
    33cc:	aa0003f3 	mov	x19, x0
    33d0:	97fffe98 	bl	2e30 <print_timing>
    33d4:	b0000040 	adrp	x0, c000 <__data_start>
    33d8:	b9401c00 	ldr	w0, [x0, #28]
    33dc:	7100081f 	cmp	w0, #0x2
    33e0:	540000c0 	b.eq	33f8 <print_statistics+0x38>  // b.none
    33e4:	71000c1f 	cmp	w0, #0x3
    33e8:	54000120 	b.eq	340c <print_statistics+0x4c>  // b.none
    33ec:	f9400bf3 	ldr	x19, [sp, #16]
    33f0:	a8c27bfd 	ldp	x29, x30, [sp], #32
    33f4:	d65f03c0 	ret
    33f8:	aa1303e1 	mov	x1, x19
    33fc:	52800140 	mov	w0, #0xa                   	// #10
    3400:	f9400bf3 	ldr	x19, [sp, #16]
    3404:	a8c27bfd 	ldp	x29, x30, [sp], #32
    3408:	17fffa16 	b	1c60 <fputc@plt>
    340c:	f9400bf3 	ldr	x19, [sp, #16]
    3410:	52800140 	mov	w0, #0xa                   	// #10
    3414:	a8c27bfd 	ldp	x29, x30, [sp], #32
    3418:	17fffaf6 	b	1ff0 <putchar@plt>
    341c:	d503201f 	nop

0000000000003420 <open_log_file>:
    3420:	a9bd7bfd 	stp	x29, x30, [sp, #-48]!
    3424:	90000042 	adrp	x2, b000 <__FRAME_END__+0x147c>
    3428:	90000021 	adrp	x1, 7000 <__trunctfdf2+0x228>
    342c:	91184021 	add	x1, x1, #0x610
    3430:	910003fd 	mov	x29, sp
    3434:	f947f442 	ldr	x2, [x2, #4072]
    3438:	f9000bf3 	str	x19, [sp, #16]
    343c:	f9400043 	ldr	x3, [x2]
    3440:	f90017e3 	str	x3, [sp, #40]
    3444:	d2800003 	mov	x3, #0x0                   	// #0
    3448:	97fffa1e 	bl	1cc0 <fopen@plt>
    344c:	aa0003f3 	mov	x19, x0
    3450:	b40002a0 	cbz	x0, 34a4 <open_log_file+0x84>
    3454:	d2800000 	mov	x0, #0x0                   	// #0
    3458:	97fffa22 	bl	1ce0 <time@plt>
    345c:	aa0003e1 	mov	x1, x0
    3460:	910083e0 	add	x0, sp, #0x20
    3464:	f90013e1 	str	x1, [sp, #32]
    3468:	97fffa0e 	bl	1ca0 <localtime@plt>
    346c:	aa0003e2 	mov	x2, x0
    3470:	b0000041 	adrp	x1, c000 <__data_start>
    3474:	b9401c21 	ldr	w1, [x1, #28]
    3478:	7100043f 	cmp	w1, #0x1
    347c:	54000149 	b.ls	34a4 <open_log_file+0x84>  // b.plast
    3480:	29401847 	ldp	w7, w6, [x2]
    3484:	90000021 	adrp	x1, 7000 <__trunctfdf2+0x228>
    3488:	91186021 	add	x1, x1, #0x618
    348c:	aa1303e0 	mov	x0, x19
    3490:	29411045 	ldp	w5, w4, [x2, #8]
    3494:	29420843 	ldp	w3, w2, [x2, #16]
    3498:	11000463 	add	w3, w3, #0x1
    349c:	111db042 	add	w2, w2, #0x76c
    34a0:	97fffae8 	bl	2040 <fprintf@plt>
    34a4:	90000040 	adrp	x0, b000 <__FRAME_END__+0x147c>
    34a8:	f947f400 	ldr	x0, [x0, #4072]
    34ac:	f94017e2 	ldr	x2, [sp, #40]
    34b0:	f9400001 	ldr	x1, [x0]
    34b4:	eb010042 	subs	x2, x2, x1
    34b8:	d2800001 	mov	x1, #0x0                   	// #0
    34bc:	540000a1 	b.ne	34d0 <open_log_file+0xb0>  // b.any
    34c0:	aa1303e0 	mov	x0, x19
    34c4:	f9400bf3 	ldr	x19, [sp, #16]
    34c8:	a8c37bfd 	ldp	x29, x30, [sp], #48
    34cc:	d65f03c0 	ret
    34d0:	97fffa38 	bl	1db0 <__stack_chk_fail@plt>
    34d4:	d503201f 	nop
    34d8:	d503201f 	nop
    34dc:	d503201f 	nop

00000000000034e0 <close_log_file>:
    34e0:	a9be7bfd 	stp	x29, x30, [sp, #-32]!
    34e4:	910003fd 	mov	x29, sp
    34e8:	f9000bf3 	str	x19, [sp, #16]
    34ec:	aa0003f3 	mov	x19, x0
    34f0:	97fffa94 	bl	1f40 <fflush@plt>
    34f4:	3100041f 	cmn	w0, #0x1
    34f8:	540000a0 	b.eq	350c <close_log_file+0x2c>  // b.none
    34fc:	aa1303e0 	mov	x0, x19
    3500:	f9400bf3 	ldr	x19, [sp, #16]
    3504:	a8c27bfd 	ldp	x29, x30, [sp], #32
    3508:	17fff9ea 	b	1cb0 <fclose@plt>
    350c:	f9400bf3 	ldr	x19, [sp, #16]
    3510:	a8c27bfd 	ldp	x29, x30, [sp], #32
    3514:	d65f03c0 	ret
    3518:	d503201f 	nop
    351c:	d503201f 	nop

0000000000003520 <parse_opt>:
    3520:	a9b47bfd 	stp	x29, x30, [sp, #-192]!
    3524:	90000044 	adrp	x4, b000 <__FRAME_END__+0x147c>
    3528:	910003fd 	mov	x29, sp
    352c:	f947f484 	ldr	x4, [x4, #4072]
    3530:	a90153f3 	stp	x19, x20, [sp, #16]
    3534:	2a0003f3 	mov	w19, w0
    3538:	a9025bf5 	stp	x21, x22, [sp, #32]
    353c:	aa0203f5 	mov	x21, x2
    3540:	aa0103f6 	mov	x22, x1
    3544:	a90363f7 	stp	x23, x24, [sp, #48]
    3548:	f9400080 	ldr	x0, [x4]
    354c:	f9005fe0 	str	x0, [sp, #184]
    3550:	d2800000 	mov	x0, #0x0                   	// #0
    3554:	97fffa9f 	bl	1fd0 <__errno_location@plt>
    3558:	aa0003f7 	mov	x23, x0
    355c:	f94016b4 	ldr	x20, [x21, #40]
    3560:	528003e0 	mov	w0, #0x1f                  	// #31
    3564:	b90002ff 	str	wzr, [x23]
    3568:	97fffaa6 	bl	2000 <feclearexcept@plt>
    356c:	52800024 	mov	w4, #0x1                   	// #1
    3570:	72a02004 	movk	w4, #0x100, lsl #16
    3574:	6b04027f 	cmp	w19, w4
    3578:	54000420 	b.eq	35fc <parse_opt+0xdc>  // b.none
    357c:	11000884 	add	w4, w4, #0x2
    3580:	6b04027f 	cmp	w19, w4
    3584:	54000cc1 	b.ne	371c <parse_opt+0x1fc>  // b.any
    3588:	52800001 	mov	w1, #0x0                   	// #0
    358c:	aa1403e0 	mov	x0, x20
    3590:	d2803102 	mov	x2, #0x188                 	// #392
    3594:	97fff9eb 	bl	1d40 <memset@plt>
    3598:	4f000400 	movi	v0.4s, #0x0
    359c:	91040281 	add	x1, x20, #0x100
    35a0:	52800c80 	mov	w0, #0x64                  	// #100
    35a4:	b900da80 	str	w0, [x20, #216]
    35a8:	52800016 	mov	w22, #0x0                   	// #0
    35ac:	d292d000 	mov	x0, #0x9680                	// #38528
    35b0:	f2a01300 	movk	x0, #0x98, lsl #16
    35b4:	ad000020 	stp	q0, q0, [x1]
    35b8:	ad010020 	stp	q0, q0, [x1, #32]
    35bc:	ad020020 	stp	q0, q0, [x1, #64]
    35c0:	ad030020 	stp	q0, q0, [x1, #96]
    35c4:	f900c280 	str	x0, [x20, #384]
    35c8:	90000041 	adrp	x1, b000 <__FRAME_END__+0x147c>
    35cc:	f947f421 	ldr	x1, [x1, #4072]
    35d0:	f9405fe0 	ldr	x0, [sp, #184]
    35d4:	f9400022 	ldr	x2, [x1]
    35d8:	eb020000 	subs	x0, x0, x2
    35dc:	d2800002 	mov	x2, #0x0                   	// #0
    35e0:	54004121 	b.ne	3e04 <parse_opt+0x8e4>  // b.any
    35e4:	2a1603e0 	mov	w0, w22
    35e8:	a94153f3 	ldp	x19, x20, [sp, #16]
    35ec:	a9425bf5 	ldp	x21, x22, [sp, #32]
    35f0:	a94363f7 	ldp	x23, x24, [sp, #48]
    35f4:	a8cc7bfd 	ldp	x29, x30, [sp], #192
    35f8:	d65f03c0 	ret
    35fc:	f9401a80 	ldr	x0, [x20, #48]
    3600:	b5000100 	cbnz	x0, 3620 <parse_opt+0x100>
    3604:	f9401e80 	ldr	x0, [x20, #56]
    3608:	b50000c0 	cbnz	x0, 3620 <parse_opt+0x100>
    360c:	90000040 	adrp	x0, b000 <__FRAME_END__+0x147c>
    3610:	f947dc00 	ldr	x0, [x0, #4024]
    3614:	b9400000 	ldr	w0, [x0]
    3618:	7100081f 	cmp	w0, #0x2
    361c:	54002728 	b.hi	3b00 <parse_opt+0x5e0>  // b.pmore
    3620:	6d410680 	ldp	d0, d1, [x20, #16]
    3624:	1e612010 	fcmpe	d0, d1
    3628:	5400236c 	b.gt	3a94 <parse_opt+0x574>
    362c:	1e602008 	fcmp	d0, #0.0
    3630:	54001ac0 	b.eq	3988 <parse_opt+0x468>  // b.none
    3634:	b940da93 	ldr	w19, [x20, #216]
    3638:	7101927f 	cmp	w19, #0x64
    363c:	54000160 	b.eq	3668 <parse_opt+0x148>  // b.none
    3640:	f9407680 	ldr	x0, [x20, #232]
    3644:	b50000a0 	cbnz	x0, 3658 <parse_opt+0x138>
    3648:	f9407a80 	ldr	x0, [x20, #240]
    364c:	b5000060 	cbnz	x0, 3658 <parse_opt+0x138>
    3650:	f9407280 	ldr	x0, [x20, #224]
    3654:	b4001a80 	cbz	x0, 39a4 <parse_opt+0x484>
    3658:	90000021 	adrp	x1, 7000 <__trunctfdf2+0x228>
    365c:	911c8021 	add	x1, x1, #0x720
    3660:	aa1503e0 	mov	x0, x21
    3664:	97fffa07 	bl	1e80 <argp_error@plt>
    3668:	f9407a80 	ldr	x0, [x20, #240]
    366c:	b4001960 	cbz	x0, 3998 <parse_opt+0x478>
    3670:	f9407685 	ldr	x5, [x20, #232]
    3674:	b4001fa5 	cbz	x5, 3a68 <parse_opt+0x548>
    3678:	b940da93 	ldr	w19, [x20, #216]
    367c:	7101927f 	cmp	w19, #0x64
    3680:	54001981 	b.ne	39b0 <parse_opt+0x490>  // b.any
    3684:	f9407286 	ldr	x6, [x20, #224]
    3688:	f100001f 	cmp	x0, #0x0
    368c:	9a851004 	csel	x4, x0, x5, ne  // ne = any
    3690:	d2800707 	mov	x7, #0x38                  	// #56
    3694:	f10000df 	cmp	x6, #0x0
    3698:	f2c000c7 	movk	x7, #0x6, lsl #32
    369c:	9a8410c6 	csel	x6, x6, x4, ne  // ne = any
    36a0:	9101e3f3 	add	x19, sp, #0x78
    36a4:	a90a7fff 	stp	xzr, xzr, [sp, #160]
    36a8:	aa1303e2 	mov	x2, x19
    36ac:	52800003 	mov	w3, #0x0                   	// #0
    36b0:	52800001 	mov	w1, #0x0                   	// #0
    36b4:	d2802240 	mov	x0, #0x112                 	// #274
    36b8:	f9003fe7 	str	x7, [sp, #120]
    36bc:	a9087fff 	stp	xzr, xzr, [sp, #128]
    36c0:	a90913e6 	stp	x6, x4, [sp, #144]
    36c4:	f90053e5 	str	x5, [sp, #160]
    36c8:	97fffa52 	bl	2010 <syscall@plt>
    36cc:	2a0003f6 	mov	w22, w0
    36d0:	350001a0 	cbnz	w0, 3704 <parse_opt+0x1e4>
    36d4:	d2800705 	mov	x5, #0x38                  	// #56
    36d8:	aa1303e2 	mov	x2, x19
    36dc:	2a0503e3 	mov	w3, w5
    36e0:	52800004 	mov	w4, #0x0                   	// #0
    36e4:	52800001 	mov	w1, #0x0                   	// #0
    36e8:	d2802260 	mov	x0, #0x113                 	// #275
    36ec:	f9003fe5 	str	x5, [sp, #120]
    36f0:	a9097fff 	stp	xzr, xzr, [sp, #144]
    36f4:	f90053ff 	str	xzr, [sp, #160]
    36f8:	97fffa46 	bl	2010 <syscall@plt>
    36fc:	2a0003f6 	mov	w22, w0
    3700:	34fff640 	cbz	w0, 35c8 <parse_opt+0xa8>
    3704:	36fff636 	tbz	w22, #31, 35c8 <parse_opt+0xa8>
    3708:	aa1503e0 	mov	x0, x21
    370c:	90000021 	adrp	x1, 7000 <__trunctfdf2+0x228>
    3710:	911ee021 	add	x1, x1, #0x7b8
    3714:	97fff9db 	bl	1e80 <argp_error@plt>
    3718:	17ffffac 	b	35c8 <parse_opt+0xa8>
    371c:	3901cfff 	strb	wzr, [sp, #115]
    3720:	71019a7f 	cmp	w19, #0x66
    3724:	f9003fff 	str	xzr, [sp, #120]
    3728:	f94016b8 	ldr	x24, [x21, #40]
    372c:	b90002ff 	str	wzr, [x23]
    3730:	540024a0 	b.eq	3bc4 <parse_opt+0x6a4>  // b.none
    3734:	5400024d 	b.le	377c <parse_opt+0x25c>
    3738:	7101b67f 	cmp	w19, #0x6d
    373c:	54002520 	b.eq	3be0 <parse_opt+0x6c0>  // b.none
    3740:	54000a2d 	b.le	3884 <parse_opt+0x364>
    3744:	7101c27f 	cmp	w19, #0x70
    3748:	54000280 	b.eq	3798 <parse_opt+0x278>  // b.none
    374c:	7101d27f 	cmp	w19, #0x74
    3750:	54000621 	b.ne	3814 <parse_opt+0x2f4>  // b.any
    3754:	52800142 	mov	w2, #0xa                   	// #10
    3758:	aa1603e0 	mov	x0, x22
    375c:	d2800001 	mov	x1, #0x0                   	// #0
    3760:	97fff9dc 	bl	1ed0 <strtoull@plt>
    3764:	b94002e2 	ldr	w2, [x23]
    3768:	aa0003f3 	mov	x19, x0
    376c:	350020c2 	cbnz	w2, 3b84 <parse_opt+0x664>
    3770:	52800016 	mov	w22, #0x0                   	// #0
    3774:	f9006b13 	str	x19, [x24, #208]
    3778:	17ffff94 	b	35c8 <parse_opt+0xa8>
    377c:	7101527f 	cmp	w19, #0x54
    3780:	54002680 	b.eq	3c50 <parse_opt+0x730>  // b.none
    3784:	54000ecd 	b.le	395c <parse_opt+0x43c>
    3788:	71018e7f 	cmp	w19, #0x63
    378c:	54002700 	b.eq	3c6c <parse_opt+0x74c>  // b.none
    3790:	7101927f 	cmp	w19, #0x64
    3794:	54000981 	b.ne	38c4 <parse_opt+0x3a4>  // b.any
    3798:	aa1603e0 	mov	x0, x22
    379c:	d2800001 	mov	x1, #0x0                   	// #0
    37a0:	6d0527e8 	stp	d8, d9, [sp, #80]
    37a4:	97fff91b 	bl	1c10 <strtod@plt>
    37a8:	b94002e2 	ldr	w2, [x23]
    37ac:	1e604008 	fmov	d8, d0
    37b0:	35001d22 	cbnz	w2, 3b54 <parse_opt+0x634>
    37b4:	1e65c109 	frintz	d9, d8
    37b8:	528001e0 	mov	w0, #0xf                   	// #15
    37bc:	97fff935 	bl	1c90 <fetestexcept@plt>
    37c0:	9e780117 	fcvtzs	x23, d8
    37c4:	35002d60 	cbnz	w0, 3d70 <parse_opt+0x850>
    37c8:	1e693909 	fsub	d9, d8, d9
    37cc:	d2d9aca0 	mov	x0, #0xcd6500000000        	// #225833675390976
    37d0:	f2e839a0 	movk	x0, #0x41cd, lsl #48
    37d4:	9e670000 	fmov	d0, x0
    37d8:	1e600920 	fmul	d0, d9, d0
    37dc:	97fff9f1 	bl	1fa0 <lround@plt>
    37e0:	aa0003f4 	mov	x20, x0
    37e4:	528001e0 	mov	w0, #0xf                   	// #15
    37e8:	97fff92a 	bl	1c90 <fetestexcept@plt>
    37ec:	2a0003f6 	mov	w22, w0
    37f0:	35002b60 	cbnz	w0, 3d5c <parse_opt+0x83c>
    37f4:	7101927f 	cmp	w19, #0x64
    37f8:	54002aa0 	b.eq	3d4c <parse_opt+0x82c>  // b.none
    37fc:	7101c27f 	cmp	w19, #0x70
    3800:	54002aa1 	b.ne	3d54 <parse_opt+0x834>  // b.any
    3804:	fd000f08 	str	d8, [x24, #24]
    3808:	a9035317 	stp	x23, x20, [x24, #48]
    380c:	6d4527e8 	ldp	d8, d9, [sp, #80]
    3810:	17ffff6e 	b	35c8 <parse_opt+0xa8>
    3814:	7101be7f 	cmp	w19, #0x6f
    3818:	54002fc1 	b.ne	3e10 <parse_opt+0x8f0>  // b.any
    381c:	aa1603e0 	mov	x0, x22
    3820:	a9046bf9 	stp	x25, x26, [sp, #64]
    3824:	97fff8df 	bl	1ba0 <strlen@plt>
    3828:	93407c19 	sxtw	x25, w0
    382c:	aa0003f3 	mov	x19, x0
    3830:	d1001320 	sub	x0, x25, #0x4
    3834:	b0000034 	adrp	x20, 8000 <_IO_stdin_used+0xef8>
    3838:	8b0002c0 	add	x0, x22, x0
    383c:	912e6281 	add	x1, x20, #0xb98
    3840:	97fff984 	bl	1e50 <strcmp@plt>
    3844:	34001700 	cbz	w0, 3b24 <parse_opt+0x604>
    3848:	11001673 	add	w19, w19, #0x5
    384c:	91001720 	add	x0, x25, #0x5
    3850:	94000230 	bl	4110 <__wrap_malloc>
    3854:	912e6284 	add	x4, x20, #0xb98
    3858:	93407e73 	sxtw	x19, w19
    385c:	f9002300 	str	x0, [x24, #64]
    3860:	b4002be0 	cbz	x0, 3ddc <parse_opt+0x8bc>
    3864:	aa1603e3 	mov	x3, x22
    3868:	aa1303e1 	mov	x1, x19
    386c:	90000022 	adrp	x2, 7000 <__trunctfdf2+0x228>
    3870:	52800016 	mov	w22, #0x0                   	// #0
    3874:	91248042 	add	x2, x2, #0x920
    3878:	97fff902 	bl	1c80 <snprintf@plt>
    387c:	a9446bf9 	ldp	x25, x26, [sp, #64]
    3880:	17ffff52 	b	35c8 <parse_opt+0xa8>
    3884:	7101a27f 	cmp	w19, #0x68
    3888:	54001280 	b.eq	3ad8 <parse_opt+0x5b8>  // b.none
    388c:	7101b27f 	cmp	w19, #0x6c
    3890:	54002c01 	b.ne	3e10 <parse_opt+0x8f0>  // b.any
    3894:	d2800001 	mov	x1, #0x0                   	// #0
    3898:	aa1603e0 	mov	x0, x22
    389c:	52800142 	mov	w2, #0xa                   	// #10
    38a0:	97fff974 	bl	1e70 <strtol@plt>
    38a4:	51000401 	sub	w1, w0, #0x1
    38a8:	71000c3f 	cmp	w1, #0x3
    38ac:	54001608 	b.hi	3b6c <parse_opt+0x64c>  // b.pmore
    38b0:	90000041 	adrp	x1, b000 <__FRAME_END__+0x147c>
    38b4:	52800016 	mov	w22, #0x0                   	// #0
    38b8:	f947dc21 	ldr	x1, [x1, #4024]
    38bc:	b9000020 	str	w0, [x1]
    38c0:	17ffff42 	b	35c8 <parse_opt+0xa8>
    38c4:	71018a7f 	cmp	w19, #0x62
    38c8:	54002a41 	b.ne	3e10 <parse_opt+0x8f0>  // b.any
    38cc:	aa1603e0 	mov	x0, x22
    38d0:	97fff8b4 	bl	1ba0 <strlen@plt>
    38d4:	b94022a1 	ldr	w1, [x21, #32]
    38d8:	35001321 	cbnz	w1, 3b3c <parse_opt+0x61c>
    38dc:	11000400 	add	w0, w0, #0x1
    38e0:	b900031f 	str	wzr, [x24]
    38e4:	9102c3f7 	add	x23, sp, #0xb0
    38e8:	937d7c00 	sbfiz	x0, x0, #3, #32
    38ec:	94000209 	bl	4110 <__wrap_malloc>
    38f0:	52800402 	mov	w2, #0x20                  	// #32
    38f4:	f9000700 	str	x0, [x24, #8]
    38f8:	aa1703e1 	mov	x1, x23
    38fc:	aa1603e0 	mov	x0, x22
    3900:	790163e2 	strh	w2, [sp, #176]
    3904:	97fff89f 	bl	1b80 <strtok@plt>
    3908:	aa0003f4 	mov	x20, x0
    390c:	b4000240 	cbz	x0, 3954 <parse_opt+0x434>
    3910:	aa1403e0 	mov	x0, x20
    3914:	97fff8a3 	bl	1ba0 <strlen@plt>
    3918:	b9800315 	ldrsw	x21, [x24]
    391c:	91000400 	add	x0, x0, #0x1
    3920:	f9400713 	ldr	x19, [x24, #8]
    3924:	940001fb 	bl	4110 <__wrap_malloc>
    3928:	aa1403e1 	mov	x1, x20
    392c:	f8357a60 	str	x0, [x19, x21, lsl #3]
    3930:	97fff988 	bl	1f50 <strcpy@plt>
    3934:	b9400302 	ldr	w2, [x24]
    3938:	aa1703e1 	mov	x1, x23
    393c:	d2800000 	mov	x0, #0x0                   	// #0
    3940:	11000442 	add	w2, w2, #0x1
    3944:	b9000302 	str	w2, [x24]
    3948:	97fff88e 	bl	1b80 <strtok@plt>
    394c:	aa0003f4 	mov	x20, x0
    3950:	b5fffe00 	cbnz	x0, 3910 <parse_opt+0x3f0>
    3954:	52800016 	mov	w22, #0x0                   	// #0
    3958:	17ffff1c 	b	35c8 <parse_opt+0xa8>
    395c:	7101127f 	cmp	w19, #0x44
    3960:	54000ae0 	b.eq	3abc <parse_opt+0x59c>  // b.none
    3964:	7101427f 	cmp	w19, #0x50
    3968:	54002541 	b.ne	3e10 <parse_opt+0x8f0>  // b.any
    396c:	aa1603e0 	mov	x0, x22
    3970:	52800002 	mov	w2, #0x0                   	// #0
    3974:	d2800001 	mov	x1, #0x0                   	// #0
    3978:	52800016 	mov	w22, #0x0                   	// #0
    397c:	97fff955 	bl	1ed0 <strtoull@plt>
    3980:	f9007700 	str	x0, [x24, #232]
    3984:	17ffff11 	b	35c8 <parse_opt+0xa8>
    3988:	fd400e80 	ldr	d0, [x20, #24]
    398c:	1e602018 	fcmpe	d0, #0.0
    3990:	5400056c 	b.gt	3a3c <parse_opt+0x51c>
    3994:	17ffff28 	b	3634 <parse_opt+0x114>
    3998:	f9407281 	ldr	x1, [x20, #224]
    399c:	b5ffe6a1 	cbnz	x1, 3670 <parse_opt+0x150>
    39a0:	b940da93 	ldr	w19, [x20, #216]
    39a4:	7101927f 	cmp	w19, #0x64
    39a8:	52800016 	mov	w22, #0x0                   	// #0
    39ac:	54000400 	b.eq	3a2c <parse_opt+0x50c>  // b.none
    39b0:	4f000400 	movi	v0.4s, #0x0
    39b4:	9101e3f7 	add	x23, sp, #0x78
    39b8:	f9001aff 	str	xzr, [x23, #48]
    39bc:	52800020 	mov	w0, #0x1                   	// #1
    39c0:	ad0002e0 	stp	q0, q0, [x23]
    39c4:	3d800ae0 	str	q0, [x23, #32]
    39c8:	97fff8f6 	bl	1da0 <sched_get_priority_max@plt>
    39cc:	6b13001f 	cmp	w0, w19
    39d0:	540006e3 	b.cc	3aac <parse_opt+0x58c>  // b.lo, b.ul, b.last
    39d4:	52800024 	mov	w4, #0x1                   	// #1
    39d8:	aa1703e2 	mov	x2, x23
    39dc:	52800003 	mov	w3, #0x0                   	// #0
    39e0:	52800001 	mov	w1, #0x0                   	// #0
    39e4:	d2802240 	mov	x0, #0x112                 	// #274
    39e8:	b9007fe4 	str	w4, [sp, #124]
    39ec:	b9008ff3 	str	w19, [sp, #140]
    39f0:	97fff988 	bl	2010 <syscall@plt>
    39f4:	2a0003f6 	mov	w22, w0
    39f8:	35000420 	cbnz	w0, 3a7c <parse_opt+0x55c>
    39fc:	d2800705 	mov	x5, #0x38                  	// #56
    3a00:	aa1703e2 	mov	x2, x23
    3a04:	2a0503e3 	mov	w3, w5
    3a08:	52800004 	mov	w4, #0x0                   	// #0
    3a0c:	52800001 	mov	w1, #0x0                   	// #0
    3a10:	d2802260 	mov	x0, #0x113                 	// #275
    3a14:	f9003fe5 	str	x5, [sp, #120]
    3a18:	a9097fff 	stp	xzr, xzr, [sp, #144]
    3a1c:	f90053ff 	str	xzr, [sp, #160]
    3a20:	97fff97c 	bl	2010 <syscall@plt>
    3a24:	2a0003f6 	mov	w22, w0
    3a28:	350002a0 	cbnz	w0, 3a7c <parse_opt+0x55c>
    3a2c:	f9407685 	ldr	x5, [x20, #232]
    3a30:	b4ffdcc5 	cbz	x5, 35c8 <parse_opt+0xa8>
    3a34:	f9407a80 	ldr	x0, [x20, #240]
    3a38:	17ffff13 	b	3684 <parse_opt+0x164>
    3a3c:	90000040 	adrp	x0, b000 <__FRAME_END__+0x147c>
    3a40:	f947dc00 	ldr	x0, [x0, #4024]
    3a44:	b9400000 	ldr	w0, [x0]
    3a48:	7100081f 	cmp	w0, #0x2
    3a4c:	54000a88 	b.hi	3b9c <parse_opt+0x67c>  // b.pmore
    3a50:	f9401a80 	ldr	x0, [x20, #48]
    3a54:	f9001280 	str	x0, [x20, #32]
    3a58:	f9401e80 	ldr	x0, [x20, #56]
    3a5c:	fd000a80 	str	d0, [x20, #16]
    3a60:	f9001680 	str	x0, [x20, #40]
    3a64:	17fffef4 	b	3634 <parse_opt+0x114>
    3a68:	aa1503e0 	mov	x0, x21
    3a6c:	90000021 	adrp	x1, 7000 <__trunctfdf2+0x228>
    3a70:	911d2021 	add	x1, x1, #0x748
    3a74:	97fff903 	bl	1e80 <argp_error@plt>
    3a78:	17ffffca 	b	39a0 <parse_opt+0x480>
    3a7c:	36fffd96 	tbz	w22, #31, 3a2c <parse_opt+0x50c>
    3a80:	aa1503e0 	mov	x0, x21
    3a84:	90000021 	adrp	x1, 7000 <__trunctfdf2+0x228>
    3a88:	911e2021 	add	x1, x1, #0x788
    3a8c:	97fff8fd 	bl	1e80 <argp_error@plt>
    3a90:	17ffffe7 	b	3a2c <parse_opt+0x50c>
    3a94:	aa1503e0 	mov	x0, x21
    3a98:	90000021 	adrp	x1, 7000 <__trunctfdf2+0x228>
    3a9c:	911a8021 	add	x1, x1, #0x6a0
    3aa0:	97fff8f8 	bl	1e80 <argp_error@plt>
    3aa4:	fd400a80 	ldr	d0, [x20, #16]
    3aa8:	17fffee1 	b	362c <parse_opt+0x10c>
    3aac:	52800020 	mov	w0, #0x1                   	// #1
    3ab0:	97fff8bc 	bl	1da0 <sched_get_priority_max@plt>
    3ab4:	2a0003f3 	mov	w19, w0
    3ab8:	17ffffc7 	b	39d4 <parse_opt+0x4b4>
    3abc:	aa1603e0 	mov	x0, x22
    3ac0:	52800002 	mov	w2, #0x0                   	// #0
    3ac4:	d2800001 	mov	x1, #0x0                   	// #0
    3ac8:	52800016 	mov	w22, #0x0                   	// #0
    3acc:	97fff901 	bl	1ed0 <strtoull@plt>
    3ad0:	f9007b00 	str	x0, [x24, #240]
    3ad4:	17fffebd 	b	35c8 <parse_opt+0xa8>
    3ad8:	90000041 	adrp	x1, b000 <__FRAME_END__+0x147c>
    3adc:	52800122 	mov	w2, #0x9                   	// #9
    3ae0:	aa1503e0 	mov	x0, x21
    3ae4:	a9046bf9 	stp	x25, x26, [sp, #64]
    3ae8:	f947ec21 	ldr	x1, [x1, #4056]
    3aec:	6d0527e8 	stp	d8, d9, [sp, #80]
    3af0:	f9400021 	ldr	x1, [x1]
    3af4:	97fff88b 	bl	1d20 <argp_state_help@plt>
    3af8:	52800000 	mov	w0, #0x0                   	// #0
    3afc:	97fff831 	bl	1bc0 <exit@plt>
    3b00:	90000043 	adrp	x3, b000 <__FRAME_END__+0x147c>
    3b04:	90000020 	adrp	x0, 7000 <__trunctfdf2+0x228>
    3b08:	d2800ae2 	mov	x2, #0x57                  	// #87
    3b0c:	d2800021 	mov	x1, #0x1                   	// #1
    3b10:	f947e463 	ldr	x3, [x3, #4040]
    3b14:	91192000 	add	x0, x0, #0x648
    3b18:	f9400063 	ldr	x3, [x3]
    3b1c:	97fff8f9 	bl	1f00 <fwrite@plt>
    3b20:	17fffec0 	b	3620 <parse_opt+0x100>
    3b24:	91000733 	add	x19, x25, #0x1
    3b28:	aa1303e0 	mov	x0, x19
    3b2c:	94000179 	bl	4110 <__wrap_malloc>
    3b30:	90000024 	adrp	x4, 7000 <__trunctfdf2+0x228>
    3b34:	91108084 	add	x4, x4, #0x420
    3b38:	17ffff49 	b	385c <parse_opt+0x33c>
    3b3c:	aa1503e0 	mov	x0, x21
    3b40:	90000021 	adrp	x1, 7000 <__trunctfdf2+0x228>
    3b44:	911fc021 	add	x1, x1, #0x7f0
    3b48:	52800016 	mov	w22, #0x0                   	// #0
    3b4c:	97fff8cd 	bl	1e80 <argp_error@plt>
    3b50:	17fffe9e 	b	35c8 <parse_opt+0xa8>
    3b54:	aa1503e0 	mov	x0, x21
    3b58:	90000023 	adrp	x3, 7000 <__trunctfdf2+0x228>
    3b5c:	9121e063 	add	x3, x3, #0x878
    3b60:	52800021 	mov	w1, #0x1                   	// #1
    3b64:	97fff8ef 	bl	1f20 <argp_failure@plt>
    3b68:	17ffff13 	b	37b4 <parse_opt+0x294>
    3b6c:	aa1503e0 	mov	x0, x21
    3b70:	90000021 	adrp	x1, 7000 <__trunctfdf2+0x228>
    3b74:	9124a021 	add	x1, x1, #0x928
    3b78:	52800016 	mov	w22, #0x0                   	// #0
    3b7c:	97fff8c1 	bl	1e80 <argp_error@plt>
    3b80:	17fffe92 	b	35c8 <parse_opt+0xa8>
    3b84:	aa1503e0 	mov	x0, x21
    3b88:	90000023 	adrp	x3, 7000 <__trunctfdf2+0x228>
    3b8c:	91264063 	add	x3, x3, #0x990
    3b90:	52800021 	mov	w1, #0x1                   	// #1
    3b94:	97fff8e3 	bl	1f20 <argp_failure@plt>
    3b98:	17fffef6 	b	3770 <parse_opt+0x250>
    3b9c:	90000043 	adrp	x3, b000 <__FRAME_END__+0x147c>
    3ba0:	90000020 	adrp	x0, 7000 <__trunctfdf2+0x228>
    3ba4:	d2800962 	mov	x2, #0x4b                  	// #75
    3ba8:	911b4000 	add	x0, x0, #0x6d0
    3bac:	f947e463 	ldr	x3, [x3, #4040]
    3bb0:	d2800021 	mov	x1, #0x1                   	// #1
    3bb4:	f9400063 	ldr	x3, [x3]
    3bb8:	97fff8d2 	bl	1f00 <fwrite@plt>
    3bbc:	fd400e80 	ldr	d0, [x20, #24]
    3bc0:	17ffffa4 	b	3a50 <parse_opt+0x530>
    3bc4:	aa1603e0 	mov	x0, x22
    3bc8:	52800002 	mov	w2, #0x0                   	// #0
    3bcc:	d2800001 	mov	x1, #0x0                   	// #0
    3bd0:	52800016 	mov	w22, #0x0                   	// #0
    3bd4:	97fff7ef 	bl	1b90 <strtoul@plt>
    3bd8:	b900db00 	str	w0, [x24, #216]
    3bdc:	17fffe7b 	b	35c8 <parse_opt+0xa8>
    3be0:	aa1603e0 	mov	x0, x22
    3be4:	9101cfe3 	add	x3, sp, #0x73
    3be8:	9101e3e2 	add	x2, sp, #0x78
    3bec:	90000021 	adrp	x1, 7000 <__trunctfdf2+0x228>
    3bf0:	91208021 	add	x1, x1, #0x820
    3bf4:	97fff8e7 	bl	1f90 <__isoc99_sscanf@plt>
    3bf8:	7100001f 	cmp	w0, #0x0
    3bfc:	54000c4d 	b.le	3d84 <parse_opt+0x864>
    3c00:	3941cfe0 	ldrb	w0, [sp, #115]
    3c04:	34000ce0 	cbz	w0, 3da0 <parse_opt+0x880>
    3c08:	51011c00 	sub	w0, w0, #0x47
    3c0c:	12001c00 	and	w0, w0, #0xff
    3c10:	7100981f 	cmp	w0, #0x26
    3c14:	54000128 	b.hi	3c38 <parse_opt+0x718>  // b.pmore
    3c18:	d2800021 	mov	x1, #0x1                   	// #1
    3c1c:	9ac02020 	lsl	x0, x1, x0
    3c20:	f21a001f 	tst	x0, #0x4000000040
    3c24:	54000d61 	b.ne	3dd0 <parse_opt+0x8b0>  // b.any
    3c28:	f21c001f 	tst	x0, #0x1000000010
    3c2c:	54000cc1 	b.ne	3dc4 <parse_opt+0x8a4>  // b.any
    3c30:	f200001f 	tst	x0, #0x100000001
    3c34:	54000be1 	b.ne	3db0 <parse_opt+0x890>  // b.any
    3c38:	aa1503e0 	mov	x0, x21
    3c3c:	90000021 	adrp	x1, 7000 <__trunctfdf2+0x228>
    3c40:	91216021 	add	x1, x1, #0x858
    3c44:	52800016 	mov	w22, #0x0                   	// #0
    3c48:	97fff88e 	bl	1e80 <argp_error@plt>
    3c4c:	17fffe5f 	b	35c8 <parse_opt+0xa8>
    3c50:	aa1603e0 	mov	x0, x22
    3c54:	52800002 	mov	w2, #0x0                   	// #0
    3c58:	d2800001 	mov	x1, #0x0                   	// #0
    3c5c:	52800016 	mov	w22, #0x0                   	// #0
    3c60:	97fff89c 	bl	1ed0 <strtoull@plt>
    3c64:	f9007300 	str	x0, [x24, #224]
    3c68:	17fffe58 	b	35c8 <parse_opt+0xa8>
    3c6c:	91014313 	add	x19, x24, #0x50
    3c70:	90000034 	adrp	x20, 7000 <__trunctfdf2+0x228>
    3c74:	9101d3f8 	add	x24, sp, #0x74
    3c78:	b4000536 	cbz	x22, 3d1c <parse_opt+0x7fc>
    3c7c:	91252294 	add	x20, x20, #0x948
    3c80:	aa1803e2 	mov	x2, x24
    3c84:	aa1403e1 	mov	x1, x20
    3c88:	aa1603e0 	mov	x0, x22
    3c8c:	a9046bf9 	stp	x25, x26, [sp, #64]
    3c90:	9000003a 	adrp	x26, 7000 <__trunctfdf2+0x228>
    3c94:	9120a35a 	add	x26, x26, #0x828
    3c98:	97fff8be 	bl	1f90 <__isoc99_sscanf@plt>
    3c9c:	d2800039 	mov	x25, #0x1                   	// #1
    3ca0:	7100001f 	cmp	w0, #0x0
    3ca4:	540002ed 	b.le	3d00 <parse_opt+0x7e0>
    3ca8:	b98077e0 	ldrsw	x0, [sp, #116]
    3cac:	f10ffc1f 	cmp	x0, #0x3ff
    3cb0:	540000c8 	b.hi	3cc8 <parse_opt+0x7a8>  // b.pmore
    3cb4:	d346fc02 	lsr	x2, x0, #6
    3cb8:	9ac02320 	lsl	x0, x25, x0
    3cbc:	f8627a61 	ldr	x1, [x19, x2, lsl #3]
    3cc0:	aa000020 	orr	x0, x1, x0
    3cc4:	f8227a60 	str	x0, [x19, x2, lsl #3]
    3cc8:	aa1603e0 	mov	x0, x22
    3ccc:	52800581 	mov	w1, #0x2c                  	// #44
    3cd0:	97fff87c 	bl	1ec0 <strchr@plt>
    3cd4:	aa0003f6 	mov	x22, x0
    3cd8:	b4000200 	cbz	x0, 3d18 <parse_opt+0x7f8>
    3cdc:	39400000 	ldrb	w0, [x0]
    3ce0:	aa1803e2 	mov	x2, x24
    3ce4:	aa1403e1 	mov	x1, x20
    3ce8:	7100b01f 	cmp	w0, #0x2c
    3cec:	9a9616d6 	cinc	x22, x22, eq  // eq = none
    3cf0:	aa1603e0 	mov	x0, x22
    3cf4:	97fff8a7 	bl	1f90 <__isoc99_sscanf@plt>
    3cf8:	7100001f 	cmp	w0, #0x0
    3cfc:	54fffd6c 	b.gt	3ca8 <parse_opt+0x788>
    3d00:	b94002e2 	ldr	w2, [x23]
    3d04:	aa1a03e3 	mov	x3, x26
    3d08:	aa1503e0 	mov	x0, x21
    3d0c:	52800021 	mov	w1, #0x1                   	// #1
    3d10:	97fff884 	bl	1f20 <argp_failure@plt>
    3d14:	17ffffe5 	b	3ca8 <parse_opt+0x788>
    3d18:	a9446bf9 	ldp	x25, x26, [sp, #64]
    3d1c:	aa1303e1 	mov	x1, x19
    3d20:	d2801000 	mov	x0, #0x80                  	// #128
    3d24:	97fff883 	bl	1f30 <__sched_cpucount@plt>
    3d28:	2a0003f6 	mov	w22, w0
    3d2c:	35ffe140 	cbnz	w0, 3954 <parse_opt+0x434>
    3d30:	b94002e2 	ldr	w2, [x23]
    3d34:	aa1503e0 	mov	x0, x21
    3d38:	90000023 	adrp	x3, 7000 <__trunctfdf2+0x228>
    3d3c:	91254063 	add	x3, x3, #0x950
    3d40:	52800021 	mov	w1, #0x1                   	// #1
    3d44:	97fff877 	bl	1f20 <argp_failure@plt>
    3d48:	17fffe20 	b	35c8 <parse_opt+0xa8>
    3d4c:	a9025317 	stp	x23, x20, [x24, #32]
    3d50:	fd000b08 	str	d8, [x24, #16]
    3d54:	6d4527e8 	ldp	d8, d9, [sp, #80]
    3d58:	17fffe1c 	b	35c8 <parse_opt+0xa8>
    3d5c:	aa1503e0 	mov	x0, x21
    3d60:	90000021 	adrp	x1, 7000 <__trunctfdf2+0x228>
    3d64:	91232021 	add	x1, x1, #0x8c8
    3d68:	97fff846 	bl	1e80 <argp_error@plt>
    3d6c:	17fffea2 	b	37f4 <parse_opt+0x2d4>
    3d70:	aa1503e0 	mov	x0, x21
    3d74:	90000021 	adrp	x1, 7000 <__trunctfdf2+0x228>
    3d78:	91228021 	add	x1, x1, #0x8a0
    3d7c:	97fff841 	bl	1e80 <argp_error@plt>
    3d80:	17fffe92 	b	37c8 <parse_opt+0x2a8>
    3d84:	b94002e2 	ldr	w2, [x23]
    3d88:	aa1503e0 	mov	x0, x21
    3d8c:	90000023 	adrp	x3, 7000 <__trunctfdf2+0x228>
    3d90:	9120a063 	add	x3, x3, #0x828
    3d94:	52800021 	mov	w1, #0x1                   	// #1
    3d98:	97fff862 	bl	1f20 <argp_failure@plt>
    3d9c:	17ffff99 	b	3c00 <parse_opt+0x6e0>
    3da0:	f9403fe0 	ldr	x0, [sp, #120]
    3da4:	52800016 	mov	w22, #0x0                   	// #0
    3da8:	f9002700 	str	x0, [x24, #72]
    3dac:	17fffe07 	b	35c8 <parse_opt+0xa8>
    3db0:	f9403fe0 	ldr	x0, [sp, #120]
    3db4:	d376d400 	lsl	x0, x0, #10
    3db8:	d376d400 	lsl	x0, x0, #10
    3dbc:	d376d400 	lsl	x0, x0, #10
    3dc0:	17fffff9 	b	3da4 <parse_opt+0x884>
    3dc4:	f9403fe0 	ldr	x0, [sp, #120]
    3dc8:	d376d400 	lsl	x0, x0, #10
    3dcc:	17fffff6 	b	3da4 <parse_opt+0x884>
    3dd0:	f9403fe0 	ldr	x0, [sp, #120]
    3dd4:	d376d400 	lsl	x0, x0, #10
    3dd8:	17fffff9 	b	3dbc <parse_opt+0x89c>
    3ddc:	b94002e2 	ldr	w2, [x23]
    3de0:	aa1503e0 	mov	x0, x21
    3de4:	90000023 	adrp	x3, 7000 <__trunctfdf2+0x228>
    3de8:	9123c063 	add	x3, x3, #0x8f0
    3dec:	52800021 	mov	w1, #0x1                   	// #1
    3df0:	f90037e4 	str	x4, [sp, #104]
    3df4:	97fff84b 	bl	1f20 <argp_failure@plt>
    3df8:	f9402300 	ldr	x0, [x24, #64]
    3dfc:	f94037e4 	ldr	x4, [sp, #104]
    3e00:	17fffe99 	b	3864 <parse_opt+0x344>
    3e04:	a9046bf9 	stp	x25, x26, [sp, #64]
    3e08:	6d0527e8 	stp	d8, d9, [sp, #80]
    3e0c:	97fff7e9 	bl	1db0 <__stack_chk_fail@plt>
    3e10:	528000f6 	mov	w22, #0x7                   	// #7
    3e14:	17fffded 	b	35c8 <parse_opt+0xa8>
    3e18:	d503201f 	nop
    3e1c:	d503201f 	nop

0000000000003e20 <start_memory_watcher>:
    3e20:	b5000040 	cbnz	x0, 3e28 <start_memory_watcher+0x8>
    3e24:	d65f03c0 	ret
    3e28:	a9bc7bfd 	stp	x29, x30, [sp, #-64]!
    3e2c:	910003fd 	mov	x29, sp
    3e30:	a90153f3 	stp	x19, x20, [sp, #16]
    3e34:	90000054 	adrp	x20, b000 <__FRAME_END__+0x147c>
    3e38:	aa0003f3 	mov	x19, x0
    3e3c:	f947de80 	ldr	x0, [x20, #4024]
    3e40:	b9400000 	ldr	w0, [x0]
    3e44:	f90013f5 	str	x21, [sp, #32]
    3e48:	b0000055 	adrp	x21, c000 <__data_start>
    3e4c:	b9407aa1 	ldr	w1, [x21, #120]
    3e50:	35000621 	cbnz	w1, 3f14 <start_memory_watcher+0xf4>
    3e54:	71000c1f 	cmp	w0, #0x3
    3e58:	540003c8 	b.hi	3ed0 <start_memory_watcher+0xb0>  // b.pmore
    3e5c:	2a1303e1 	mov	w1, w19
    3e60:	12800020 	mov	w0, #0xfffffffe            	// #-2
    3e64:	97fff81f 	bl	1ee0 <mallopt@plt>
    3e68:	34000820 	cbz	w0, 3f6c <start_memory_watcher+0x14c>
    3e6c:	52800001 	mov	w1, #0x0                   	// #0
    3e70:	12800060 	mov	w0, #0xfffffffc            	// #-4
    3e74:	97fff81b 	bl	1ee0 <mallopt@plt>
    3e78:	34000540 	cbz	w0, 3f20 <start_memory_watcher+0x100>
    3e7c:	aa1303e0 	mov	x0, x19
    3e80:	940000a4 	bl	4110 <__wrap_malloc>
    3e84:	b40008a0 	cbz	x0, 3f98 <start_memory_watcher+0x178>
    3e88:	97fff806 	bl	1ea0 <free@plt>
    3e8c:	d2800000 	mov	x0, #0x0                   	// #0
    3e90:	97fff75c 	bl	1c00 <sbrk@plt>
    3e94:	9101e2a1 	add	x1, x21, #0x78
    3e98:	aa0003e2 	mov	x2, x0
    3e9c:	b100041f 	cmn	x0, #0x1
    3ea0:	f9000420 	str	x0, [x1, #8]
    3ea4:	54000560 	b.eq	3f50 <start_memory_watcher+0x130>  // b.none
    3ea8:	f947de94 	ldr	x20, [x20, #4024]
    3eac:	52800020 	mov	w0, #0x1                   	// #1
    3eb0:	b9007aa0 	str	w0, [x21, #120]
    3eb4:	b9400280 	ldr	w0, [x20]
    3eb8:	71000c1f 	cmp	w0, #0x3
    3ebc:	540001a8 	b.hi	3ef0 <start_memory_watcher+0xd0>  // b.pmore
    3ec0:	a94153f3 	ldp	x19, x20, [sp, #16]
    3ec4:	f94013f5 	ldr	x21, [sp, #32]
    3ec8:	a8c47bfd 	ldp	x29, x30, [sp], #64
    3ecc:	d65f03c0 	ret
    3ed0:	90000040 	adrp	x0, b000 <__FRAME_END__+0x147c>
    3ed4:	aa1303e2 	mov	x2, x19
    3ed8:	b0000021 	adrp	x1, 8000 <_IO_stdin_used+0xef8>
    3edc:	9115e021 	add	x1, x1, #0x578
    3ee0:	f947e400 	ldr	x0, [x0, #4040]
    3ee4:	f9400000 	ldr	x0, [x0]
    3ee8:	97fff856 	bl	2040 <fprintf@plt>
    3eec:	17ffffdc 	b	3e5c <start_memory_watcher+0x3c>
    3ef0:	90000040 	adrp	x0, b000 <__FRAME_END__+0x147c>
    3ef4:	b0000021 	adrp	x1, 8000 <_IO_stdin_used+0xef8>
    3ef8:	9119a021 	add	x1, x1, #0x668
    3efc:	f947e400 	ldr	x0, [x0, #4040]
    3f00:	a94153f3 	ldp	x19, x20, [sp, #16]
    3f04:	f9400000 	ldr	x0, [x0]
    3f08:	f94013f5 	ldr	x21, [sp, #32]
    3f0c:	a8c47bfd 	ldp	x29, x30, [sp], #64
    3f10:	17fff84c 	b	2040 <fprintf@plt>
    3f14:	350005a0 	cbnz	w0, 3fc8 <start_memory_watcher+0x1a8>
    3f18:	12800000 	mov	w0, #0xffffffff            	// #-1
    3f1c:	97fff729 	bl	1bc0 <exit@plt>
    3f20:	f947de94 	ldr	x20, [x20, #4024]
    3f24:	b9400280 	ldr	w0, [x20]
    3f28:	34ffff80 	cbz	w0, 3f18 <start_memory_watcher+0xf8>
    3f2c:	90000043 	adrp	x3, b000 <__FRAME_END__+0x147c>
    3f30:	b0000020 	adrp	x0, 8000 <_IO_stdin_used+0xef8>
    3f34:	d28004c2 	mov	x2, #0x26                  	// #38
    3f38:	d2800021 	mov	x1, #0x1                   	// #1
    3f3c:	f947e463 	ldr	x3, [x3, #4040]
    3f40:	91174000 	add	x0, x0, #0x5d0
    3f44:	f9400063 	ldr	x3, [x3]
    3f48:	97fff7ee 	bl	1f00 <fwrite@plt>
    3f4c:	17fffff3 	b	3f18 <start_memory_watcher+0xf8>
    3f50:	b0000020 	adrp	x0, 8000 <_IO_stdin_used+0xef8>
    3f54:	9118a000 	add	x0, x0, #0x628
    3f58:	f9001fe2 	str	x2, [sp, #56]
    3f5c:	97fff725 	bl	1bf0 <perror@plt>
    3f60:	f9401fe2 	ldr	x2, [sp, #56]
    3f64:	2a0203e0 	mov	w0, w2
    3f68:	97fff716 	bl	1bc0 <exit@plt>
    3f6c:	f947de94 	ldr	x20, [x20, #4024]
    3f70:	b9400280 	ldr	w0, [x20]
    3f74:	34fffd20 	cbz	w0, 3f18 <start_memory_watcher+0xf8>
    3f78:	90000040 	adrp	x0, b000 <__FRAME_END__+0x147c>
    3f7c:	aa1303e2 	mov	x2, x19
    3f80:	b0000021 	adrp	x1, 8000 <_IO_stdin_used+0xef8>
    3f84:	9116c021 	add	x1, x1, #0x5b0
    3f88:	f947e400 	ldr	x0, [x0, #4040]
    3f8c:	f9400000 	ldr	x0, [x0]
    3f90:	97fff82c 	bl	2040 <fprintf@plt>
    3f94:	17ffffe1 	b	3f18 <start_memory_watcher+0xf8>
    3f98:	f947de94 	ldr	x20, [x20, #4024]
    3f9c:	b9400280 	ldr	w0, [x20]
    3fa0:	34fffbc0 	cbz	w0, 3f18 <start_memory_watcher+0xf8>
    3fa4:	90000043 	adrp	x3, b000 <__FRAME_END__+0x147c>
    3fa8:	b0000020 	adrp	x0, 8000 <_IO_stdin_used+0xef8>
    3fac:	d2800542 	mov	x2, #0x2a                  	// #42
    3fb0:	d2800021 	mov	x1, #0x1                   	// #1
    3fb4:	f947e463 	ldr	x3, [x3, #4040]
    3fb8:	9117e000 	add	x0, x0, #0x5f8
    3fbc:	f9400063 	ldr	x3, [x3]
    3fc0:	97fff7d0 	bl	1f00 <fwrite@plt>
    3fc4:	17ffffd5 	b	3f18 <start_memory_watcher+0xf8>
    3fc8:	90000043 	adrp	x3, b000 <__FRAME_END__+0x147c>
    3fcc:	b0000020 	adrp	x0, 8000 <_IO_stdin_used+0xef8>
    3fd0:	d2800862 	mov	x2, #0x43                  	// #67
    3fd4:	d2800021 	mov	x1, #0x1                   	// #1
    3fd8:	f947e463 	ldr	x3, [x3, #4040]
    3fdc:	911a8000 	add	x0, x0, #0x6a0
    3fe0:	f9400063 	ldr	x3, [x3]
    3fe4:	97fff7c7 	bl	1f00 <fwrite@plt>
    3fe8:	17ffffcc 	b	3f18 <start_memory_watcher+0xf8>
    3fec:	d503201f 	nop

0000000000003ff0 <stop_memory_watcher>:
    3ff0:	a9be7bfd 	stp	x29, x30, [sp, #-32]!
    3ff4:	910003fd 	mov	x29, sp
    3ff8:	a90153f3 	stp	x19, x20, [sp, #16]
    3ffc:	90000054 	adrp	x20, b000 <__FRAME_END__+0x147c>
    4000:	90000053 	adrp	x19, c000 <__data_start>
    4004:	b9407a61 	ldr	w1, [x19, #120]
    4008:	f947de80 	ldr	x0, [x20, #4024]
    400c:	7100043f 	cmp	w1, #0x1
    4010:	b9400000 	ldr	w0, [x0]
    4014:	54000200 	b.eq	4054 <stop_memory_watcher+0x64>  // b.none
    4018:	71000c1f 	cmp	w0, #0x3
    401c:	54000088 	b.hi	402c <stop_memory_watcher+0x3c>  // b.pmore
    4020:	a94153f3 	ldp	x19, x20, [sp, #16]
    4024:	a8c27bfd 	ldp	x29, x30, [sp], #32
    4028:	d65f03c0 	ret
    402c:	f0000023 	adrp	x3, b000 <__FRAME_END__+0x147c>
    4030:	90000020 	adrp	x0, 8000 <_IO_stdin_used+0xef8>
    4034:	a94153f3 	ldp	x19, x20, [sp, #16]
    4038:	911e2000 	add	x0, x0, #0x788
    403c:	f947e463 	ldr	x3, [x3, #4040]
    4040:	d28007c2 	mov	x2, #0x3e                  	// #62
    4044:	a8c27bfd 	ldp	x29, x30, [sp], #32
    4048:	d2800021 	mov	x1, #0x1                   	// #1
    404c:	f9400063 	ldr	x3, [x3]
    4050:	17fff7ac 	b	1f00 <fwrite@plt>
    4054:	71000c1f 	cmp	w0, #0x3
    4058:	540001e8 	b.hi	4094 <stop_memory_watcher+0xa4>  // b.pmore
    405c:	b9007a7f 	str	wzr, [x19, #120]
    4060:	52a00041 	mov	w1, #0x20000               	// #131072
    4064:	12800020 	mov	w0, #0xfffffffe            	// #-2
    4068:	97fff79e 	bl	1ee0 <mallopt@plt>
    406c:	34000260 	cbz	w0, 40b8 <stop_memory_watcher+0xc8>
    4070:	52a00021 	mov	w1, #0x10000               	// #65536
    4074:	12800060 	mov	w0, #0xfffffffc            	// #-4
    4078:	97fff79a 	bl	1ee0 <mallopt@plt>
    407c:	35fffd20 	cbnz	w0, 4020 <stop_memory_watcher+0x30>
    4080:	f947de94 	ldr	x20, [x20, #4024]
    4084:	b9400280 	ldr	w0, [x20]
    4088:	35000300 	cbnz	w0, 40e8 <stop_memory_watcher+0xf8>
    408c:	12800000 	mov	w0, #0xffffffff            	// #-1
    4090:	97fff6cc 	bl	1bc0 <exit@plt>
    4094:	f0000023 	adrp	x3, b000 <__FRAME_END__+0x147c>
    4098:	90000020 	adrp	x0, 8000 <_IO_stdin_used+0xef8>
    409c:	d2800322 	mov	x2, #0x19                  	// #25
    40a0:	d2800021 	mov	x1, #0x1                   	// #1
    40a4:	f947e463 	ldr	x3, [x3, #4040]
    40a8:	911ba000 	add	x0, x0, #0x6e8
    40ac:	f9400063 	ldr	x3, [x3]
    40b0:	97fff794 	bl	1f00 <fwrite@plt>
    40b4:	17ffffea 	b	405c <stop_memory_watcher+0x6c>
    40b8:	f947de94 	ldr	x20, [x20, #4024]
    40bc:	b9400280 	ldr	w0, [x20]
    40c0:	34fffe60 	cbz	w0, 408c <stop_memory_watcher+0x9c>
    40c4:	f0000023 	adrp	x3, b000 <__FRAME_END__+0x147c>
    40c8:	90000020 	adrp	x0, 8000 <_IO_stdin_used+0xef8>
    40cc:	d28006e2 	mov	x2, #0x37                  	// #55
    40d0:	d2800021 	mov	x1, #0x1                   	// #1
    40d4:	f947e463 	ldr	x3, [x3, #4040]
    40d8:	911c2000 	add	x0, x0, #0x708
    40dc:	f9400063 	ldr	x3, [x3]
    40e0:	97fff788 	bl	1f00 <fwrite@plt>
    40e4:	17ffffea 	b	408c <stop_memory_watcher+0x9c>
    40e8:	f0000023 	adrp	x3, b000 <__FRAME_END__+0x147c>
    40ec:	90000020 	adrp	x0, 8000 <_IO_stdin_used+0xef8>
    40f0:	d2800862 	mov	x2, #0x43                  	// #67
    40f4:	d2800021 	mov	x1, #0x1                   	// #1
    40f8:	f947e463 	ldr	x3, [x3, #4040]
    40fc:	911d0000 	add	x0, x0, #0x740
    4100:	f9400063 	ldr	x3, [x3]
    4104:	97fff77f 	bl	1f00 <fwrite@plt>
    4108:	17ffffe1 	b	408c <stop_memory_watcher+0x9c>
    410c:	d503201f 	nop

0000000000004110 <__wrap_malloc>:
    4110:	a9bd7bfd 	stp	x29, x30, [sp, #-48]!
    4114:	910003fd 	mov	x29, sp
    4118:	a90153f3 	stp	x19, x20, [sp, #16]
    411c:	aa0003f4 	mov	x20, x0
    4120:	a9025bf5 	stp	x21, x22, [sp, #32]
    4124:	97fff6f3 	bl	1cf0 <malloc@plt>
    4128:	90000041 	adrp	x1, c000 <__data_start>
    412c:	9101e035 	add	x21, x1, #0x78
    4130:	aa0003f3 	mov	x19, x0
    4134:	b9407821 	ldr	w1, [x1, #120]
    4138:	7100043f 	cmp	w1, #0x1
    413c:	540000c0 	b.eq	4154 <__wrap_malloc+0x44>  // b.none
    4140:	aa1303e0 	mov	x0, x19
    4144:	a94153f3 	ldp	x19, x20, [sp, #16]
    4148:	a9425bf5 	ldp	x21, x22, [sp, #32]
    414c:	a8c37bfd 	ldp	x29, x30, [sp], #48
    4150:	d65f03c0 	ret
    4154:	d2800000 	mov	x0, #0x0                   	// #0
    4158:	97fff6aa 	bl	1c00 <sbrk@plt>
    415c:	aa0003f6 	mov	x22, x0
    4160:	b100041f 	cmn	x0, #0x1
    4164:	54000180 	b.eq	4194 <__wrap_malloc+0x84>  // b.none
    4168:	f94006b5 	ldr	x21, [x21, #8]
    416c:	eb0002bf 	cmp	x21, x0
    4170:	54fffe80 	b.eq	4140 <__wrap_malloc+0x30>  // b.none
    4174:	aa1303e0 	mov	x0, x19
    4178:	97fff74a 	bl	1ea0 <free@plt>
    417c:	f0000020 	adrp	x0, b000 <__FRAME_END__+0x147c>
    4180:	f947dc00 	ldr	x0, [x0, #4024]
    4184:	b9400000 	ldr	w0, [x0]
    4188:	35000100 	cbnz	w0, 41a8 <__wrap_malloc+0x98>
    418c:	12800000 	mov	w0, #0xffffffff            	// #-1
    4190:	97fff68c 	bl	1bc0 <exit@plt>
    4194:	90000020 	adrp	x0, 8000 <_IO_stdin_used+0xef8>
    4198:	911f2000 	add	x0, x0, #0x7c8
    419c:	97fff695 	bl	1bf0 <perror@plt>
    41a0:	2a1603e0 	mov	w0, w22
    41a4:	97fff687 	bl	1bc0 <exit@plt>
    41a8:	f0000020 	adrp	x0, b000 <__FRAME_END__+0x147c>
    41ac:	aa1603e4 	mov	x4, x22
    41b0:	aa1503e3 	mov	x3, x21
    41b4:	aa1403e2 	mov	x2, x20
    41b8:	f947e400 	ldr	x0, [x0, #4040]
    41bc:	90000021 	adrp	x1, 8000 <_IO_stdin_used+0xef8>
    41c0:	911fc021 	add	x1, x1, #0x7f0
    41c4:	f9400000 	ldr	x0, [x0]
    41c8:	97fff79e 	bl	2040 <fprintf@plt>
    41cc:	17fffff0 	b	418c <__wrap_malloc+0x7c>

00000000000041d0 <__wrap_mmap>:
    41d0:	90000046 	adrp	x6, c000 <__data_start>
    41d4:	b94078c6 	ldr	w6, [x6, #120]
    41d8:	710004df 	cmp	w6, #0x1
    41dc:	54000040 	b.eq	41e4 <__wrap_mmap+0x14>  // b.none
    41e0:	17fff720 	b	1e60 <mmap@plt>
    41e4:	a9bf7bfd 	stp	x29, x30, [sp, #-16]!
    41e8:	f0000020 	adrp	x0, b000 <__FRAME_END__+0x147c>
    41ec:	910003fd 	mov	x29, sp
    41f0:	f947dc00 	ldr	x0, [x0, #4024]
    41f4:	b9400000 	ldr	w0, [x0]
    41f8:	35000060 	cbnz	w0, 4204 <__wrap_mmap+0x34>
    41fc:	12800000 	mov	w0, #0xffffffff            	// #-1
    4200:	97fff670 	bl	1bc0 <exit@plt>
    4204:	f0000023 	adrp	x3, b000 <__FRAME_END__+0x147c>
    4208:	90000020 	adrp	x0, 8000 <_IO_stdin_used+0xef8>
    420c:	d2800942 	mov	x2, #0x4a                  	// #74
    4210:	d2800021 	mov	x1, #0x1                   	// #1
    4214:	f947e463 	ldr	x3, [x3, #4040]
    4218:	91220000 	add	x0, x0, #0x880
    421c:	f9400063 	ldr	x3, [x3]
    4220:	97fff738 	bl	1f00 <fwrite@plt>
    4224:	17fffff6 	b	41fc <__wrap_mmap+0x2c>
    4228:	d503201f 	nop
    422c:	d503201f 	nop

0000000000004230 <setup_pmcs>:
    4230:	f0000020 	adrp	x0, b000 <__FRAME_END__+0x147c>
    4234:	f947dc00 	ldr	x0, [x0, #4024]
    4238:	b9400000 	ldr	w0, [x0]
    423c:	71000c1f 	cmp	w0, #0x3
    4240:	54000068 	b.hi	424c <setup_pmcs+0x1c>  // b.pmore
    4244:	52800000 	mov	w0, #0x0                   	// #0
    4248:	d65f03c0 	ret
    424c:	a9bf7bfd 	stp	x29, x30, [sp, #-16]!
    4250:	f0000023 	adrp	x3, b000 <__FRAME_END__+0x147c>
    4254:	d2800402 	mov	x2, #0x20                  	// #32
    4258:	910003fd 	mov	x29, sp
    425c:	f947e463 	ldr	x3, [x3, #4040]
    4260:	d2800021 	mov	x1, #0x1                   	// #1
    4264:	90000020 	adrp	x0, 8000 <_IO_stdin_used+0xef8>
    4268:	91234000 	add	x0, x0, #0x8d0
    426c:	f9400063 	ldr	x3, [x3]
    4270:	97fff724 	bl	1f00 <fwrite@plt>
    4274:	52800000 	mov	w0, #0x0                   	// #0
    4278:	a8c17bfd 	ldp	x29, x30, [sp], #16
    427c:	d65f03c0 	ret

0000000000004280 <teardown_pmcs>:
    4280:	a9bf7bfd 	stp	x29, x30, [sp, #-16]!
    4284:	f0000020 	adrp	x0, b000 <__FRAME_END__+0x147c>
    4288:	910003fd 	mov	x29, sp
    428c:	f947dc00 	ldr	x0, [x0, #4024]
    4290:	b9400000 	ldr	w0, [x0]
    4294:	71000c1f 	cmp	w0, #0x3
    4298:	54000448 	b.hi	4320 <teardown_pmcs+0xa0>  // b.pmore
    429c:	52800000 	mov	w0, #0x0                   	// #0
    42a0:	97fff6c8 	bl	1dc0 <close@plt>
    42a4:	3100041f 	cmn	w0, #0x1
    42a8:	54000300 	b.eq	4308 <teardown_pmcs+0x88>  // b.none
    42ac:	52800000 	mov	w0, #0x0                   	// #0
    42b0:	97fff6c4 	bl	1dc0 <close@plt>
    42b4:	3100041f 	cmn	w0, #0x1
    42b8:	54000280 	b.eq	4308 <teardown_pmcs+0x88>  // b.none
    42bc:	52800000 	mov	w0, #0x0                   	// #0
    42c0:	97fff6c0 	bl	1dc0 <close@plt>
    42c4:	3100041f 	cmn	w0, #0x1
    42c8:	54000200 	b.eq	4308 <teardown_pmcs+0x88>  // b.none
    42cc:	52800000 	mov	w0, #0x0                   	// #0
    42d0:	97fff6bc 	bl	1dc0 <close@plt>
    42d4:	3100041f 	cmn	w0, #0x1
    42d8:	54000180 	b.eq	4308 <teardown_pmcs+0x88>  // b.none
    42dc:	52800000 	mov	w0, #0x0                   	// #0
    42e0:	97fff6b8 	bl	1dc0 <close@plt>
    42e4:	3100041f 	cmn	w0, #0x1
    42e8:	54000100 	b.eq	4308 <teardown_pmcs+0x88>  // b.none
    42ec:	52800000 	mov	w0, #0x0                   	// #0
    42f0:	97fff6b4 	bl	1dc0 <close@plt>
    42f4:	3100041f 	cmn	w0, #0x1
    42f8:	54000080 	b.eq	4308 <teardown_pmcs+0x88>  // b.none
    42fc:	52800000 	mov	w0, #0x0                   	// #0
    4300:	a8c17bfd 	ldp	x29, x30, [sp], #16
    4304:	d65f03c0 	ret
    4308:	90000020 	adrp	x0, 8000 <_IO_stdin_used+0xef8>
    430c:	91248000 	add	x0, x0, #0x920
    4310:	97fff638 	bl	1bf0 <perror@plt>
    4314:	12800000 	mov	w0, #0xffffffff            	// #-1
    4318:	a8c17bfd 	ldp	x29, x30, [sp], #16
    431c:	d65f03c0 	ret
    4320:	f0000023 	adrp	x3, b000 <__FRAME_END__+0x147c>
    4324:	90000020 	adrp	x0, 8000 <_IO_stdin_used+0xef8>
    4328:	d2800402 	mov	x2, #0x20                  	// #32
    432c:	d2800021 	mov	x1, #0x1                   	// #1
    4330:	f947e463 	ldr	x3, [x3, #4040]
    4334:	9123e000 	add	x0, x0, #0x8f8
    4338:	f9400063 	ldr	x3, [x3]
    433c:	97fff6f1 	bl	1f00 <fwrite@plt>
    4340:	17ffffd7 	b	429c <teardown_pmcs+0x1c>
    4344:	d503201f 	nop
    4348:	d503201f 	nop
    434c:	d503201f 	nop

0000000000004350 <pmcs_get_value>:
    4350:	a9b67bfd 	stp	x29, x30, [sp, #-160]!
    4354:	f0000023 	adrp	x3, b000 <__FRAME_END__+0x147c>
    4358:	d2800f02 	mov	x2, #0x78                  	// #120
    435c:	910003fd 	mov	x29, sp
    4360:	f947f463 	ldr	x3, [x3, #4072]
    4364:	f9000bf3 	str	x19, [sp, #16]
    4368:	910083e1 	add	x1, sp, #0x20
    436c:	aa0803f3 	mov	x19, x8
    4370:	f9400064 	ldr	x4, [x3]
    4374:	f9004fe4 	str	x4, [sp, #152]
    4378:	d2800004 	mov	x4, #0x0                   	// #0
    437c:	52800000 	mov	w0, #0x0                   	// #0
    4380:	97fff6f8 	bl	1f60 <read@plt>
    4384:	f101e01f 	cmp	x0, #0x78
    4388:	54000080 	b.eq	4398 <pmcs_get_value+0x48>  // b.none
    438c:	90000020 	adrp	x0, 8000 <_IO_stdin_used+0xef8>
    4390:	91254000 	add	x0, x0, #0x950
    4394:	97fff617 	bl	1bf0 <perror@plt>
    4398:	f9401fe1 	ldr	x1, [sp, #56]
    439c:	f9000261 	str	x1, [x19]
    43a0:	f94027e1 	ldr	x1, [sp, #72]
    43a4:	f9000661 	str	x1, [x19, #8]
    43a8:	f9402fe1 	ldr	x1, [sp, #88]
    43ac:	f0000020 	adrp	x0, b000 <__FRAME_END__+0x147c>
    43b0:	f9000a61 	str	x1, [x19, #16]
    43b4:	f94037e1 	ldr	x1, [sp, #104]
    43b8:	f9000e61 	str	x1, [x19, #24]
    43bc:	f9403fe1 	ldr	x1, [sp, #120]
    43c0:	f9001261 	str	x1, [x19, #32]
    43c4:	f947f400 	ldr	x0, [x0, #4072]
    43c8:	f94047e1 	ldr	x1, [sp, #136]
    43cc:	f9001661 	str	x1, [x19, #40]
    43d0:	f9404fe2 	ldr	x2, [sp, #152]
    43d4:	f9400001 	ldr	x1, [x0]
    43d8:	eb010042 	subs	x2, x2, x1
    43dc:	d2800001 	mov	x1, #0x0                   	// #0
    43e0:	54000081 	b.ne	43f0 <pmcs_get_value+0xa0>  // b.any
    43e4:	f9400bf3 	ldr	x19, [sp, #16]
    43e8:	a8ca7bfd 	ldp	x29, x30, [sp], #160
    43ec:	d65f03c0 	ret
    43f0:	97fff670 	bl	1db0 <__stack_chk_fail@plt>
    43f4:	d503201f 	nop
    43f8:	d503201f 	nop
    43fc:	d503201f 	nop

0000000000004400 <sampling>:
    4400:	a9b57bfd 	stp	x29, x30, [sp, #-176]!
    4404:	f0000020 	adrp	x0, b000 <__FRAME_END__+0x147c>
    4408:	910003fd 	mov	x29, sp
    440c:	f947f400 	ldr	x0, [x0, #4072]
    4410:	a90153f3 	stp	x19, x20, [sp, #16]
    4414:	90000053 	adrp	x19, c000 <__data_start>
    4418:	b9408a61 	ldr	w1, [x19, #136]
    441c:	a9025bf5 	stp	x21, x22, [sp, #32]
    4420:	f9001bf7 	str	x23, [sp, #48]
    4424:	f9400002 	ldr	x2, [x0]
    4428:	f90057e2 	str	x2, [sp, #168]
    442c:	d2800002 	mov	x2, #0x0                   	// #0
    4430:	340007a1 	cbz	w1, 4524 <sampling+0x124>
    4434:	91022273 	add	x19, x19, #0x88
    4438:	9101e3f7 	add	x23, sp, #0x78
    443c:	91012274 	add	x20, x19, #0x48
    4440:	910103f5 	add	x21, sp, #0x40
    4444:	52800716 	mov	w22, #0x38                  	// #56
    4448:	14000018 	b	44a8 <sampling+0xa8>
    444c:	aa1503e8 	mov	x8, x21
    4450:	97ffffc0 	bl	4350 <pmcs_get_value>
    4454:	b9400661 	ldr	w1, [x19, #4]
    4458:	91004262 	add	x2, x19, #0x10
    445c:	f9402260 	ldr	x0, [x19, #64]
    4460:	ad400aa1 	ldp	q1, q2, [x21]
    4464:	9bb60020 	umaddl	x0, w1, w22, x0
    4468:	3dc00aa0 	ldr	q0, [x21, #32]
    446c:	ad000841 	stp	q1, q2, [x2]
    4470:	a900fc1f 	stp	xzr, xzr, [x0, #8]
    4474:	a901fc1f 	stp	xzr, xzr, [x0, #24]
    4478:	f900141f 	str	xzr, [x0, #40]
    447c:	3d800840 	str	q0, [x2, #32]
    4480:	f9400002 	ldr	x2, [x0]
    4484:	91000442 	add	x2, x2, #0x1
    4488:	f9000002 	str	x2, [x0]
    448c:	11000422 	add	w2, w1, #0x1
    4490:	91016260 	add	x0, x19, #0x58
    4494:	aa1403e1 	mov	x1, x20
    4498:	b9000662 	str	w2, [x19, #4]
    449c:	97fff685 	bl	1eb0 <nanosleep@plt>
    44a0:	b9400260 	ldr	w0, [x19]
    44a4:	34000400 	cbz	w0, 4524 <sampling+0x124>
    44a8:	29408261 	ldp	w1, w0, [x19, #4]
    44ac:	34ffff00 	cbz	w0, 448c <sampling+0x8c>
    44b0:	34fffce1 	cbz	w1, 444c <sampling+0x4c>
    44b4:	aa1703e8 	mov	x8, x23
    44b8:	97ffffa6 	bl	4350 <pmcs_get_value>
    44bc:	a9411e65 	ldp	x5, x7, [x19, #16]
    44c0:	a9478fe4 	ldp	x4, x3, [sp, #120]
    44c4:	b9400661 	ldr	w1, [x19, #4]
    44c8:	f9402260 	ldr	x0, [x19, #64]
    44cc:	a948a3e9 	ldp	x9, x8, [sp, #136]
    44d0:	cb070063 	sub	x3, x3, x7
    44d4:	cb050084 	sub	x4, x4, x5
    44d8:	9bb60020 	umaddl	x0, w1, w22, x0
    44dc:	a9421667 	ldp	x7, x5, [x19, #32]
    44e0:	f9401a62 	ldr	x2, [x19, #48]
    44e4:	f9404fe6 	ldr	x6, [sp, #152]
    44e8:	cb070129 	sub	x9, x9, x7
    44ec:	cb050108 	sub	x8, x8, x5
    44f0:	a9409407 	ldp	x7, x5, [x0, #8]
    44f4:	cb0200c6 	sub	x6, x6, x2
    44f8:	f9401402 	ldr	x2, [x0, #40]
    44fc:	8b060042 	add	x2, x2, x6
    4500:	f9001402 	str	x2, [x0, #40]
    4504:	8b0400e7 	add	x7, x7, x4
    4508:	8b0300a5 	add	x5, x5, x3
    450c:	a9418c04 	ldp	x4, x3, [x0, #24]
    4510:	a9009407 	stp	x7, x5, [x0, #8]
    4514:	8b090084 	add	x4, x4, x9
    4518:	8b080063 	add	x3, x3, x8
    451c:	a9018c04 	stp	x4, x3, [x0, #24]
    4520:	17ffffd8 	b	4480 <sampling+0x80>
    4524:	d2800000 	mov	x0, #0x0                   	// #0
    4528:	97fff63e 	bl	1e20 <pthread_exit@plt>
    452c:	d503201f 	nop

0000000000004530 <setup_perf_sampler>:
    4530:	d29e4003 	mov	x3, #0xf200                	// #61952
    4534:	f2a540a3 	movk	x3, #0x2a05, lsl #16
    4538:	f2c00023 	movk	x3, #0x1, lsl #32
    453c:	a9bc7bfd 	stp	x29, x30, [sp, #-64]!
    4540:	d2800700 	mov	x0, #0x38                  	// #56
    4544:	9ac20863 	udiv	x3, x3, x2
    4548:	910003fd 	mov	x29, sp
    454c:	a90153f3 	stp	x19, x20, [sp, #16]
    4550:	90000054 	adrp	x20, c000 <__data_start>
    4554:	91022293 	add	x19, x20, #0x88
    4558:	9b007c60 	mul	x0, x3, x0
    455c:	a9025bf5 	stp	x21, x22, [sp, #32]
    4560:	aa0103f5 	mov	x21, x1
    4564:	f9001bf7 	str	x23, [sp, #48]
    4568:	52800037 	mov	w23, #0x1                   	// #1
    456c:	b9008a97 	str	w23, [x20, #136]
    4570:	9101a276 	add	x22, x19, #0x68
    4574:	a9058a7f 	stp	xzr, x2, [x19, #88]
    4578:	97fffee6 	bl	4110 <__wrap_malloc>
    457c:	aa0003e1 	mov	x1, x0
    4580:	aa1603e0 	mov	x0, x22
    4584:	f9002261 	str	x1, [x19, #64]
    4588:	97fff5b2 	bl	1c50 <pthread_attr_init@plt>
    458c:	340000c0 	cbz	w0, 45a4 <setup_perf_sampler+0x74>
    4590:	a94153f3 	ldp	x19, x20, [sp, #16]
    4594:	a9425bf5 	ldp	x21, x22, [sp, #32]
    4598:	f9401bf7 	ldr	x23, [sp, #48]
    459c:	a8c47bfd 	ldp	x29, x30, [sp], #64
    45a0:	d65f03c0 	ret
    45a4:	aa1603e0 	mov	x0, x22
    45a8:	52800001 	mov	w1, #0x0                   	// #0
    45ac:	97fff5f5 	bl	1d80 <pthread_attr_setdetachstate@plt>
    45b0:	35ffff00 	cbnz	w0, 4590 <setup_perf_sampler+0x60>
    45b4:	2a1703e1 	mov	w1, w23
    45b8:	aa1603e0 	mov	x0, x22
    45bc:	97fff5d1 	bl	1d00 <pthread_attr_setinheritsched@plt>
    45c0:	35fffe80 	cbnz	w0, 4590 <setup_perf_sampler+0x60>
    45c4:	2a1703e1 	mov	w1, w23
    45c8:	aa1603e0 	mov	x0, x22
    45cc:	97fff619 	bl	1e30 <pthread_attr_setschedpolicy@plt>
    45d0:	35fffe00 	cbnz	w0, 4590 <setup_perf_sampler+0x60>
    45d4:	aa1303e1 	mov	x1, x19
    45d8:	52800662 	mov	w2, #0x33                  	// #51
    45dc:	aa1603e0 	mov	x0, x22
    45e0:	b80a8c22 	str	w2, [x1, #168]!
    45e4:	97fff68f 	bl	2020 <pthread_attr_setschedparam@plt>
    45e8:	35fffd40 	cbnz	w0, 4590 <setup_perf_sampler+0x60>
    45ec:	aa1503e1 	mov	x1, x21
    45f0:	d2801000 	mov	x0, #0x80                  	// #128
    45f4:	97fff64f 	bl	1f30 <__sched_cpucount@plt>
    45f8:	7100001f 	cmp	w0, #0x0
    45fc:	540000cd 	b.le	4614 <setup_perf_sampler+0xe4>
    4600:	aa1503e2 	mov	x2, x21
    4604:	aa1603e0 	mov	x0, x22
    4608:	d2801001 	mov	x1, #0x80                  	// #128
    460c:	97fff571 	bl	1bd0 <pthread_attr_setaffinity_np@plt>
    4610:	35fffc00 	cbnz	w0, 4590 <setup_perf_sampler+0x60>
    4614:	91022280 	add	x0, x20, #0x88
    4618:	90000002 	adrp	x2, 4000 <stop_memory_watcher+0x10>
    461c:	9101a001 	add	x1, x0, #0x68
    4620:	91100042 	add	x2, x2, #0x400
    4624:	d2800003 	mov	x3, #0x0                   	// #0
    4628:	9102c000 	add	x0, x0, #0xb0
    462c:	97fff639 	bl	1f10 <pthread_create@plt>
    4630:	17ffffd8 	b	4590 <setup_perf_sampler+0x60>
    4634:	d503201f 	nop
    4638:	d503201f 	nop
    463c:	d503201f 	nop

0000000000004640 <teardown_perf_sampler>:
    4640:	a9be7bfd 	stp	x29, x30, [sp, #-32]!
    4644:	d2800001 	mov	x1, #0x0                   	// #0
    4648:	910003fd 	mov	x29, sp
    464c:	a90153f3 	stp	x19, x20, [sp, #16]
    4650:	90000040 	adrp	x0, c000 <__data_start>
    4654:	91022014 	add	x20, x0, #0x88
    4658:	b900881f 	str	wzr, [x0, #136]
    465c:	f9405a80 	ldr	x0, [x20, #176]
    4660:	97fff660 	bl	1fe0 <pthread_join@plt>
    4664:	2a0003f3 	mov	w19, w0
    4668:	f9402280 	ldr	x0, [x20, #64]
    466c:	97fff60d 	bl	1ea0 <free@plt>
    4670:	2a1303e0 	mov	w0, w19
    4674:	a94153f3 	ldp	x19, x20, [sp, #16]
    4678:	a8c27bfd 	ldp	x29, x30, [sp], #32
    467c:	d65f03c0 	ret

0000000000004680 <start_sampling>:
    4680:	90000040 	adrp	x0, c000 <__data_start>
    4684:	91022000 	add	x0, x0, #0x88
    4688:	52800021 	mov	w1, #0x1                   	// #1
    468c:	2900841f 	stp	wzr, w1, [x0, #4]
    4690:	d65f03c0 	ret
    4694:	d503201f 	nop
    4698:	d503201f 	nop
    469c:	d503201f 	nop

00000000000046a0 <stop_sampling>:
    46a0:	90000040 	adrp	x0, c000 <__data_start>
    46a4:	91022000 	add	x0, x0, #0x88
    46a8:	2900fc1f 	stp	wzr, wzr, [x0, #4]
    46ac:	d65f03c0 	ret

00000000000046b0 <log_samples>:
    46b0:	a9bd7bfd 	stp	x29, x30, [sp, #-48]!
    46b4:	90000021 	adrp	x1, 8000 <_IO_stdin_used+0xef8>
    46b8:	d28008e2 	mov	x2, #0x47                  	// #71
    46bc:	910003fd 	mov	x29, sp
    46c0:	a9025bf5 	stp	x21, x22, [sp, #32]
    46c4:	90000055 	adrp	x21, c000 <__data_start>
    46c8:	910222b5 	add	x21, x21, #0x88
    46cc:	a90153f3 	stp	x19, x20, [sp, #16]
    46d0:	aa0003f4 	mov	x20, x0
    46d4:	aa1403e3 	mov	x3, x20
    46d8:	91266020 	add	x0, x1, #0x998
    46dc:	d2800021 	mov	x1, #0x1                   	// #1
    46e0:	97fff608 	bl	1f00 <fwrite@plt>
    46e4:	f94022a7 	ldr	x7, [x21, #64]
    46e8:	f94000e2 	ldr	x2, [x7]
    46ec:	b4000202 	cbz	x2, 472c <log_samples+0x7c>
    46f0:	90000036 	adrp	x22, 8000 <_IO_stdin_used+0xef8>
    46f4:	912782d6 	add	x22, x22, #0x9e0
    46f8:	d2800713 	mov	x19, #0x38                  	// #56
    46fc:	d503201f 	nop
    4700:	a94090e3 	ldp	x3, x4, [x7, #8]
    4704:	aa1603e1 	mov	x1, x22
    4708:	a94198e5 	ldp	x5, x6, [x7, #24]
    470c:	aa1403e0 	mov	x0, x20
    4710:	f94014e7 	ldr	x7, [x7, #40]
    4714:	97fff64b 	bl	2040 <fprintf@plt>
    4718:	f94022a2 	ldr	x2, [x21, #64]
    471c:	8b130047 	add	x7, x2, x19
    4720:	f8736842 	ldr	x2, [x2, x19]
    4724:	9100e273 	add	x19, x19, #0x38
    4728:	b5fffec2 	cbnz	x2, 4700 <log_samples+0x50>
    472c:	a94153f3 	ldp	x19, x20, [sp, #16]
    4730:	a9425bf5 	ldp	x21, x22, [sp, #32]
    4734:	a8c37bfd 	ldp	x29, x30, [sp], #48
    4738:	d65f03c0 	ret
    473c:	d503201f 	nop

0000000000004740 <deadline_handler>:
    4740:	a9bd7bfd 	stp	x29, x30, [sp, #-48]!
    4744:	910003fd 	mov	x29, sp
    4748:	a90153f3 	stp	x19, x20, [sp, #16]
    474c:	90000053 	adrp	x19, c000 <__data_start>
    4750:	91050274 	add	x20, x19, #0x140
    4754:	97fff97b 	bl	2d40 <get_rdtsc>
    4758:	f900a260 	str	x0, [x19, #320]
    475c:	97fff97d 	bl	2d50 <get_timestamp>
    4760:	4ea01c02 	mov	v2.16b, v0.16b
    4764:	f9401280 	ldr	x0, [x20, #32]
    4768:	3d800680 	str	q0, [x20, #16]
    476c:	b5000060 	cbnz	x0, 4778 <deadline_handler+0x38>
    4770:	f940a260 	ldr	x0, [x19, #320]
    4774:	f9001280 	str	x0, [x20, #32]
    4778:	91050273 	add	x19, x19, #0x140
    477c:	3d800be2 	str	q2, [sp, #32]
    4780:	6f00e401 	movi	v1.2d, #0x0
    4784:	3dc00e60 	ldr	q0, [x19, #48]
    4788:	940005bc 	bl	5e78 <__eqtf2>
    478c:	35000060 	cbnz	w0, 4798 <deadline_handler+0x58>
    4790:	3dc00be2 	ldr	q2, [sp, #32]
    4794:	3d800e62 	str	q2, [x19, #48]
    4798:	a94153f3 	ldp	x19, x20, [sp, #16]
    479c:	a8c37bfd 	ldp	x29, x30, [sp], #48
    47a0:	d65f03c0 	ret
    47a4:	d503201f 	nop
    47a8:	d503201f 	nop
    47ac:	d503201f 	nop

00000000000047b0 <quit_handler>:
    47b0:	a9bf7bfd 	stp	x29, x30, [sp, #-16]!
    47b4:	52800000 	mov	w0, #0x0                   	// #0
    47b8:	910003fd 	mov	x29, sp
    47bc:	97fff501 	bl	1bc0 <exit@plt>

00000000000047c0 <stop_benchmark>:
    47c0:	a9bd7bfd 	stp	x29, x30, [sp, #-48]!
    47c4:	910003fd 	mov	x29, sp
    47c8:	a90153f3 	stp	x19, x20, [sp, #16]
    47cc:	f0000034 	adrp	x20, b000 <__FRAME_END__+0x147c>
    47d0:	f90013f5 	str	x21, [sp, #32]
    47d4:	90000053 	adrp	x19, c000 <__data_start>
    47d8:	91050275 	add	x21, x19, #0x140
    47dc:	97fffe05 	bl	3ff0 <stop_memory_watcher>
    47e0:	f94022a0 	ldr	x0, [x21, #64]
    47e4:	b4000100 	cbz	x0, 4804 <stop_benchmark+0x44>
    47e8:	f947de81 	ldr	x1, [x20, #4024]
    47ec:	b9400021 	ldr	w1, [x1]
    47f0:	71000c3f 	cmp	w1, #0x3
    47f4:	54000c48 	b.hi	497c <stop_benchmark+0x1bc>  // b.pmore
    47f8:	97fff52e 	bl	1cb0 <fclose@plt>
    47fc:	3100041f 	cmn	w0, #0x1
    4800:	54000d60 	b.eq	49ac <stop_benchmark+0x1ec>  // b.none
    4804:	91050275 	add	x21, x19, #0x140
    4808:	f94026a0 	ldr	x0, [x21, #72]
    480c:	b40000e0 	cbz	x0, 4828 <stop_benchmark+0x68>
    4810:	f947de81 	ldr	x1, [x20, #4024]
    4814:	b9400021 	ldr	w1, [x1]
    4818:	71000c3f 	cmp	w1, #0x3
    481c:	54000928 	b.hi	4940 <stop_benchmark+0x180>  // b.pmore
    4820:	97fff56c 	bl	1dd0 <timer_delete@plt>
    4824:	37f80a40 	tbnz	w0, #31, 496c <stop_benchmark+0x1ac>
    4828:	91050275 	add	x21, x19, #0x140
    482c:	f9402aa0 	ldr	x0, [x21, #80]
    4830:	b40000e0 	cbz	x0, 484c <stop_benchmark+0x8c>
    4834:	f947de81 	ldr	x1, [x20, #4024]
    4838:	b9400021 	ldr	w1, [x1]
    483c:	71000c3f 	cmp	w1, #0x3
    4840:	540003c8 	b.hi	48b8 <stop_benchmark+0xf8>  // b.pmore
    4844:	97fff563 	bl	1dd0 <timer_delete@plt>
    4848:	37f804e0 	tbnz	w0, #31, 48e4 <stop_benchmark+0x124>
    484c:	91050260 	add	x0, x19, #0x140
    4850:	91016000 	add	x0, x0, #0x58
    4854:	97fff5f7 	bl	2030 <sem_destroy@plt>
    4858:	37f80540 	tbnz	w0, #31, 4900 <stop_benchmark+0x140>
    485c:	f947de94 	ldr	x20, [x20, #4024]
    4860:	b9400280 	ldr	w0, [x20]
    4864:	71000c1f 	cmp	w0, #0x3
    4868:	540005a8 	b.hi	491c <stop_benchmark+0x15c>  // b.pmore
    486c:	91050273 	add	x19, x19, #0x140
    4870:	b9408260 	ldr	w0, [x19, #128]
    4874:	f9403e61 	ldr	x1, [x19, #120]
    4878:	97fff8d6 	bl	2bd0 <benchmark_teardown>
    487c:	b9808274 	ldrsw	x20, [x19, #128]
    4880:	f9403e75 	ldr	x21, [x19, #120]
    4884:	b4000114 	cbz	x20, 48a4 <stop_benchmark+0xe4>
    4888:	d2800013 	mov	x19, #0x0                   	// #0
    488c:	d503201f 	nop
    4890:	f8737aa0 	ldr	x0, [x21, x19, lsl #3]
    4894:	91000673 	add	x19, x19, #0x1
    4898:	97fff582 	bl	1ea0 <free@plt>
    489c:	eb14027f 	cmp	x19, x20
    48a0:	54ffff81 	b.ne	4890 <stop_benchmark+0xd0>  // b.any
    48a4:	aa1503e0 	mov	x0, x21
    48a8:	a94153f3 	ldp	x19, x20, [sp, #16]
    48ac:	f94013f5 	ldr	x21, [sp, #32]
    48b0:	a8c37bfd 	ldp	x29, x30, [sp], #48
    48b4:	17fff57b 	b	1ea0 <free@plt>
    48b8:	f0000023 	adrp	x3, b000 <__FRAME_END__+0x147c>
    48bc:	90000020 	adrp	x0, 8000 <_IO_stdin_used+0xef8>
    48c0:	d28002c2 	mov	x2, #0x16                  	// #22
    48c4:	912a0000 	add	x0, x0, #0xa80
    48c8:	f947e463 	ldr	x3, [x3, #4040]
    48cc:	d2800021 	mov	x1, #0x1                   	// #1
    48d0:	f9400063 	ldr	x3, [x3]
    48d4:	97fff58b 	bl	1f00 <fwrite@plt>
    48d8:	f9402aa0 	ldr	x0, [x21, #80]
    48dc:	97fff53d 	bl	1dd0 <timer_delete@plt>
    48e0:	36fffb60 	tbz	w0, #31, 484c <stop_benchmark+0x8c>
    48e4:	90000020 	adrp	x0, 8000 <_IO_stdin_used+0xef8>
    48e8:	912a6000 	add	x0, x0, #0xa98
    48ec:	97fff4c1 	bl	1bf0 <perror@plt>
    48f0:	91050260 	add	x0, x19, #0x140
    48f4:	91016000 	add	x0, x0, #0x58
    48f8:	97fff5ce 	bl	2030 <sem_destroy@plt>
    48fc:	36fffb00 	tbz	w0, #31, 485c <stop_benchmark+0x9c>
    4900:	90000020 	adrp	x0, 8000 <_IO_stdin_used+0xef8>
    4904:	912b0000 	add	x0, x0, #0xac0
    4908:	97fff4ba 	bl	1bf0 <perror@plt>
    490c:	f947de94 	ldr	x20, [x20, #4024]
    4910:	b9400280 	ldr	w0, [x20]
    4914:	71000c1f 	cmp	w0, #0x3
    4918:	54fffaa9 	b.ls	486c <stop_benchmark+0xac>  // b.plast
    491c:	f0000023 	adrp	x3, b000 <__FRAME_END__+0x147c>
    4920:	90000020 	adrp	x0, 8000 <_IO_stdin_used+0xef8>
    4924:	d2800382 	mov	x2, #0x1c                  	// #28
    4928:	d2800021 	mov	x1, #0x1                   	// #1
    492c:	f947e463 	ldr	x3, [x3, #4040]
    4930:	912bc000 	add	x0, x0, #0xaf0
    4934:	f9400063 	ldr	x3, [x3]
    4938:	97fff572 	bl	1f00 <fwrite@plt>
    493c:	17ffffcc 	b	486c <stop_benchmark+0xac>
    4940:	f0000023 	adrp	x3, b000 <__FRAME_END__+0x147c>
    4944:	90000020 	adrp	x0, 8000 <_IO_stdin_used+0xef8>
    4948:	d2800302 	mov	x2, #0x18                  	// #24
    494c:	9128e000 	add	x0, x0, #0xa38
    4950:	f947e463 	ldr	x3, [x3, #4040]
    4954:	d2800021 	mov	x1, #0x1                   	// #1
    4958:	f9400063 	ldr	x3, [x3]
    495c:	97fff569 	bl	1f00 <fwrite@plt>
    4960:	f94026a0 	ldr	x0, [x21, #72]
    4964:	97fff51b 	bl	1dd0 <timer_delete@plt>
    4968:	36fff600 	tbz	w0, #31, 4828 <stop_benchmark+0x68>
    496c:	90000020 	adrp	x0, 8000 <_IO_stdin_used+0xef8>
    4970:	91296000 	add	x0, x0, #0xa58
    4974:	97fff49f 	bl	1bf0 <perror@plt>
    4978:	17ffffac 	b	4828 <stop_benchmark+0x68>
    497c:	f0000023 	adrp	x3, b000 <__FRAME_END__+0x147c>
    4980:	d2800282 	mov	x2, #0x14                  	// #20
    4984:	d2800021 	mov	x1, #0x1                   	// #1
    4988:	90000020 	adrp	x0, 8000 <_IO_stdin_used+0xef8>
    498c:	f947e463 	ldr	x3, [x3, #4040]
    4990:	91280000 	add	x0, x0, #0xa00
    4994:	f9400063 	ldr	x3, [x3]
    4998:	97fff55a 	bl	1f00 <fwrite@plt>
    499c:	f94022a0 	ldr	x0, [x21, #64]
    49a0:	97fff4c4 	bl	1cb0 <fclose@plt>
    49a4:	3100041f 	cmn	w0, #0x1
    49a8:	54fff2e1 	b.ne	4804 <stop_benchmark+0x44>  // b.any
    49ac:	90000020 	adrp	x0, 8000 <_IO_stdin_used+0xef8>
    49b0:	91286000 	add	x0, x0, #0xa18
    49b4:	97fff48f 	bl	1bf0 <perror@plt>
    49b8:	17ffff93 	b	4804 <stop_benchmark+0x44>
    49bc:	d503201f 	nop

00000000000049c0 <period_handler>:
    49c0:	d10383ff 	sub	sp, sp, #0xe0
    49c4:	a9057bfd 	stp	x29, x30, [sp, #80]
    49c8:	910143fd 	add	x29, sp, #0x50
    49cc:	a90653f3 	stp	x19, x20, [sp, #96]
    49d0:	a9075bf5 	stp	x21, x22, [sp, #112]
    49d4:	2a0003f5 	mov	w21, w0
    49d8:	97fff8da 	bl	2d40 <get_rdtsc>
    49dc:	aa0003f4 	mov	x20, x0
    49e0:	97fff8dc 	bl	2d50 <get_timestamp>
    49e4:	90000053 	adrp	x19, c000 <__data_start>
    49e8:	91050260 	add	x0, x19, #0x140
    49ec:	3d802be0 	str	q0, [sp, #160]
    49f0:	f9404401 	ldr	x1, [x0, #136]
    49f4:	b5000041 	cbnz	x1, 49fc <period_handler+0x3c>
    49f8:	f9004414 	str	x20, [x0, #136]
    49fc:	6f00e401 	movi	v1.2d, #0x0
    4a00:	91050276 	add	x22, x19, #0x140
    4a04:	3dc026c0 	ldr	q0, [x22, #144]
    4a08:	9400051c 	bl	5e78 <__eqtf2>
    4a0c:	35000060 	cbnz	w0, 4a18 <period_handler+0x58>
    4a10:	3dc02be0 	ldr	q0, [sp, #160]
    4a14:	3d8026c0 	str	q0, [x22, #144]
    4a18:	91050262 	add	x2, x19, #0x140
    4a1c:	b940a056 	ldr	w22, [x2, #160]
    4a20:	710006df 	cmp	w22, #0x1
    4a24:	54001260 	b.eq	4c70 <period_handler+0x2b0>  // b.none
    4a28:	f9401040 	ldr	x0, [x2, #32]
    4a2c:	a90863f7 	stp	x23, x24, [sp, #128]
    4a30:	b5000040 	cbnz	x0, 4a38 <period_handler+0x78>
    4a34:	f9001054 	str	x20, [x2, #32]
    4a38:	91050276 	add	x22, x19, #0x140
    4a3c:	f900a274 	str	x20, [x19, #320]
    4a40:	6f00e401 	movi	v1.2d, #0x0
    4a44:	3dc00ec0 	ldr	q0, [x22, #48]
    4a48:	9400050c 	bl	5e78 <__eqtf2>
    4a4c:	34000860 	cbz	w0, 4b58 <period_handler+0x198>
    4a50:	91050260 	add	x0, x19, #0x140
    4a54:	3dc02be0 	ldr	q0, [sp, #160]
    4a58:	3d800400 	str	q0, [x0, #16]
    4a5c:	91050260 	add	x0, x19, #0x140
    4a60:	a94ce017 	ldp	x23, x24, [x0, #200]
    4a64:	b40006f7 	cbz	x23, 4b40 <period_handler+0x180>
    4a68:	91050276 	add	x22, x19, #0x140
    4a6c:	3dc00ec3 	ldr	q3, [x22, #48]
    4a70:	3dc03ec2 	ldr	q2, [x22, #240]
    4a74:	f9004bf9 	str	x25, [sp, #144]
    4a78:	f94012d9 	ldr	x25, [x22, #32]
    4a7c:	b5000158 	cbnz	x24, 4aa4 <period_handler+0xe4>
    4a80:	6f00e401 	movi	v1.2d, #0x0
    4a84:	4ea21c40 	mov	v0.16b, v2.16b
    4a88:	3d802fe2 	str	q2, [sp, #176]
    4a8c:	3d8033e3 	str	q3, [sp, #192]
    4a90:	9400053a 	bl	5f78 <__getf2>
    4a94:	7100001f 	cmp	w0, #0x0
    4a98:	3dc02fe2 	ldr	q2, [sp, #176]
    4a9c:	3dc033e3 	ldr	q3, [sp, #192]
    4aa0:	540007ed 	b.le	4b9c <period_handler+0x1dc>
    4aa4:	91050265 	add	x5, x19, #0x140
    4aa8:	a9007fff 	stp	xzr, xzr, [sp]
    4aac:	0f000404 	movi	v4.2s, #0x0
    4ab0:	aa1903e4 	mov	x4, x25
    4ab4:	aa1803e3 	mov	x3, x24
    4ab8:	f94020a0 	ldr	x0, [x5, #64]
    4abc:	f9000bff 	str	xzr, [sp, #16]
    4ac0:	aa1703e1 	mov	x1, x23
    4ac4:	d2800007 	mov	x7, #0x0                   	// #0
    4ac8:	f94044a2 	ldr	x2, [x5, #136]
    4acc:	f9000fff 	str	xzr, [sp, #24]
    4ad0:	d2800006 	mov	x6, #0x0                   	// #0
    4ad4:	3dc024a1 	ldr	q1, [x5, #144]
    4ad8:	3dc038a0 	ldr	q0, [x5, #224]
    4adc:	d2800005 	mov	x5, #0x0                   	// #0
    4ae0:	a9027fff 	stp	xzr, xzr, [sp, #32]
    4ae4:	a9037fff 	stp	xzr, xzr, [sp, #48]
    4ae8:	f90023ff 	str	xzr, [sp, #64]
    4aec:	97fffa35 	bl	33c0 <print_statistics>
    4af0:	91050260 	add	x0, x19, #0x140
    4af4:	f9406801 	ldr	x1, [x0, #208]
    4af8:	b4000361 	cbz	x1, 4b64 <period_handler+0x1a4>
    4afc:	f9404bf9 	ldr	x25, [sp, #144]
    4b00:	91050273 	add	x19, x19, #0x140
    4b04:	3dc02be0 	ldr	q0, [sp, #160]
    4b08:	f900127f 	str	xzr, [x19, #32]
    4b0c:	a9037e7f 	stp	xzr, xzr, [x19, #48]
    4b10:	f900467f 	str	xzr, [x19, #136]
    4b14:	a9097e7f 	stp	xzr, xzr, [x19, #144]
    4b18:	a90cfe74 	stp	x20, xzr, [x19, #200]
    4b1c:	a90f7e7f 	stp	xzr, xzr, [x19, #240]
    4b20:	3d803a60 	str	q0, [x19, #224]
    4b24:	36f80955 	tbz	w21, #31, 4c4c <period_handler+0x28c>
    4b28:	a9457bfd 	ldp	x29, x30, [sp, #80]
    4b2c:	a94653f3 	ldp	x19, x20, [sp, #96]
    4b30:	a9475bf5 	ldp	x21, x22, [sp, #112]
    4b34:	a94863f7 	ldp	x23, x24, [sp, #128]
    4b38:	910383ff 	add	sp, sp, #0xe0
    4b3c:	d65f03c0 	ret
    4b40:	6f00e401 	movi	v1.2d, #0x0
    4b44:	3dc03800 	ldr	q0, [x0, #224]
    4b48:	9400050c 	bl	5f78 <__getf2>
    4b4c:	7100001f 	cmp	w0, #0x0
    4b50:	54fff8cc 	b.gt	4a68 <period_handler+0xa8>
    4b54:	17ffffeb 	b	4b00 <period_handler+0x140>
    4b58:	3dc02be0 	ldr	q0, [sp, #160]
    4b5c:	3d800ec0 	str	q0, [x22, #48]
    4b60:	17ffffbc 	b	4a50 <period_handler+0x90>
    4b64:	f9406417 	ldr	x23, [x0, #200]
    4b68:	b4fffcb7 	cbz	x23, 4afc <period_handler+0x13c>
    4b6c:	6f00e401 	movi	v1.2d, #0x0
    4b70:	91050276 	add	x22, x19, #0x140
    4b74:	3dc03ec0 	ldr	q0, [x22, #240]
    4b78:	94000500 	bl	5f78 <__getf2>
    4b7c:	7100001f 	cmp	w0, #0x0
    4b80:	54fffbec 	b.gt	4afc <period_handler+0x13c>
    4b84:	6f00e401 	movi	v1.2d, #0x0
    4b88:	3dc03ac0 	ldr	q0, [x22, #224]
    4b8c:	940004bb 	bl	5e78 <__eqtf2>
    4b90:	34fffb60 	cbz	w0, 4afc <period_handler+0x13c>
    4b94:	f9404bf9 	ldr	x25, [sp, #144]
    4b98:	17ffffe4 	b	4b28 <period_handler+0x168>
    4b9c:	f940a278 	ldr	x24, [x19, #320]
    4ba0:	3dc006c6 	ldr	q6, [x22, #16]
    4ba4:	eb19031f 	cmp	x24, x25
    4ba8:	54000161 	b.ne	4bd4 <period_handler+0x214>  // b.any
    4bac:	4ea31c61 	mov	v1.16b, v3.16b
    4bb0:	4ea61cc0 	mov	v0.16b, v6.16b
    4bb4:	3d802fe6 	str	q6, [sp, #176]
    4bb8:	3d8033e3 	str	q3, [sp, #192]
    4bbc:	3d8037e2 	str	q2, [sp, #208]
    4bc0:	940004ae 	bl	5e78 <__eqtf2>
    4bc4:	3dc02fe6 	ldr	q6, [sp, #176]
    4bc8:	3dc033e3 	ldr	q3, [sp, #192]
    4bcc:	3dc037e2 	ldr	q2, [sp, #208]
    4bd0:	34fffcc0 	cbz	w0, 4b68 <period_handler+0x1a8>
    4bd4:	4ea31c60 	mov	v0.16b, v3.16b
    4bd8:	3d802fe6 	str	q6, [sp, #176]
    4bdc:	3d8033e2 	str	q2, [sp, #192]
    4be0:	940007fd 	bl	6bd4 <__fixunstfdi>
    4be4:	3dc033e2 	ldr	q2, [sp, #192]
    4be8:	aa0003f6 	mov	x22, x0
    4bec:	4ea21c40 	mov	v0.16b, v2.16b
    4bf0:	940007f9 	bl	6bd4 <__fixunstfdi>
    4bf4:	aa0003e5 	mov	x5, x0
    4bf8:	91050260 	add	x0, x19, #0x140
    4bfc:	a9007fff 	stp	xzr, xzr, [sp]
    4c00:	0f000404 	movi	v4.2s, #0x0
    4c04:	3dc02fe6 	ldr	q6, [sp, #176]
    4c08:	6f00e402 	movi	v2.2d, #0x0
    4c0c:	aa1603e6 	mov	x6, x22
    4c10:	f9402000 	ldr	x0, [x0, #64]
    4c14:	a9017fff 	stp	xzr, xzr, [sp, #16]
    4c18:	4ea61cc3 	mov	v3.16b, v6.16b
    4c1c:	a9027fff 	stp	xzr, xzr, [sp, #32]
    4c20:	aa1803e4 	mov	x4, x24
    4c24:	4ea21c41 	mov	v1.16b, v2.16b
    4c28:	a9037fff 	stp	xzr, xzr, [sp, #48]
    4c2c:	4ea21c40 	mov	v0.16b, v2.16b
    4c30:	d2800007 	mov	x7, #0x0                   	// #0
    4c34:	f90023ff 	str	xzr, [sp, #64]
    4c38:	d2800003 	mov	x3, #0x0                   	// #0
    4c3c:	d2800002 	mov	x2, #0x0                   	// #0
    4c40:	d2800001 	mov	x1, #0x0                   	// #0
    4c44:	97fff9df 	bl	33c0 <print_statistics>
    4c48:	17ffffaa 	b	4af0 <period_handler+0x130>
    4c4c:	91016260 	add	x0, x19, #0x58
    4c50:	97fff448 	bl	1d70 <sem_post@plt>
    4c54:	36fff6a0 	tbz	w0, #31, 4b28 <period_handler+0x168>
    4c58:	90000020 	adrp	x0, 8000 <_IO_stdin_used+0xef8>
    4c5c:	912cc000 	add	x0, x0, #0xb30
    4c60:	f9004bf9 	str	x25, [sp, #144]
    4c64:	97fff3e3 	bl	1bf0 <perror@plt>
    4c68:	52800020 	mov	w0, #0x1                   	// #1
    4c6c:	97fff3d5 	bl	1bc0 <exit@plt>
    4c70:	f9402440 	ldr	x0, [x2, #72]
    4c74:	d2800003 	mov	x3, #0x0                   	// #0
    4c78:	9102a042 	add	x2, x2, #0xa8
    4c7c:	52800001 	mov	w1, #0x0                   	// #0
    4c80:	97fff3bc 	bl	1b70 <timer_settime@plt>
    4c84:	a90863f7 	stp	x23, x24, [sp, #128]
    4c88:	36ffeea0 	tbz	w0, #31, 4a5c <period_handler+0x9c>
    4c8c:	90000020 	adrp	x0, 8000 <_IO_stdin_used+0xef8>
    4c90:	912c4000 	add	x0, x0, #0xb10
    4c94:	f9004bf9 	str	x25, [sp, #144]
    4c98:	97fff3d6 	bl	1bf0 <perror@plt>
    4c9c:	2a1603e0 	mov	w0, w22
    4ca0:	97fff3c8 	bl	1bc0 <exit@plt>
    4ca4:	d503201f 	nop
    4ca8:	d503201f 	nop
    4cac:	d503201f 	nop

0000000000004cb0 <setup_timer>:
    4cb0:	a9b67bfd 	stp	x29, x30, [sp, #-160]!
    4cb4:	f0000025 	adrp	x5, b000 <__FRAME_END__+0x147c>
    4cb8:	4f000400 	movi	v0.4s, #0x0
    4cbc:	910163e4 	add	x4, sp, #0x58
    4cc0:	910003fd 	mov	x29, sp
    4cc4:	f947f4a5 	ldr	x5, [x5, #4072]
    4cc8:	a90153f3 	stp	x19, x20, [sp, #16]
    4ccc:	aa0003f4 	mov	x20, x0
    4cd0:	a9025bf5 	stp	x21, x22, [sp, #32]
    4cd4:	aa0303f5 	mov	x21, x3
    4cd8:	2a0103e3 	mov	w3, w1
    4cdc:	f94000a0 	ldr	x0, [x5]
    4ce0:	f9004fe0 	str	x0, [sp, #152]
    4ce4:	d2800000 	mov	x0, #0x0                   	// #0
    4ce8:	ad000080 	stp	q0, q0, [x4]
    4cec:	aa0203f6 	mov	x22, x2
    4cf0:	aa0403e1 	mov	x1, x4
    4cf4:	aa1403e2 	mov	x2, x20
    4cf8:	ad010080 	stp	q0, q0, [x4, #32]
    4cfc:	b90063e3 	str	w3, [sp, #96]
    4d00:	97fff3f4 	bl	1cd0 <timer_create@plt>
    4d04:	2a0003f3 	mov	w19, w0
    4d08:	350002a0 	cbnz	w0, 4d5c <setup_timer+0xac>
    4d0c:	f9400280 	ldr	x0, [x20]
    4d10:	9100e3e2 	add	x2, sp, #0x38
    4d14:	d2800003 	mov	x3, #0x0                   	// #0
    4d18:	52800001 	mov	w1, #0x0                   	// #0
    4d1c:	a903d7f6 	stp	x22, x21, [sp, #56]
    4d20:	a904d7f6 	stp	x22, x21, [sp, #72]
    4d24:	97fff393 	bl	1b70 <timer_settime@plt>
    4d28:	37f80220 	tbnz	w0, #31, 4d6c <setup_timer+0xbc>
    4d2c:	f0000020 	adrp	x0, b000 <__FRAME_END__+0x147c>
    4d30:	f947f400 	ldr	x0, [x0, #4072]
    4d34:	f9404fe2 	ldr	x2, [sp, #152]
    4d38:	f9400001 	ldr	x1, [x0]
    4d3c:	eb010042 	subs	x2, x2, x1
    4d40:	d2800001 	mov	x1, #0x0                   	// #0
    4d44:	540001e1 	b.ne	4d80 <setup_timer+0xd0>  // b.any
    4d48:	2a1303e0 	mov	w0, w19
    4d4c:	a94153f3 	ldp	x19, x20, [sp, #16]
    4d50:	a9425bf5 	ldp	x21, x22, [sp, #32]
    4d54:	a8ca7bfd 	ldp	x29, x30, [sp], #160
    4d58:	d65f03c0 	ret
    4d5c:	90000020 	adrp	x0, 8000 <_IO_stdin_used+0xef8>
    4d60:	912d4000 	add	x0, x0, #0xb50
    4d64:	97fff3a3 	bl	1bf0 <perror@plt>
    4d68:	17fffff1 	b	4d2c <setup_timer+0x7c>
    4d6c:	2a0003f3 	mov	w19, w0
    4d70:	90000020 	adrp	x0, 8000 <_IO_stdin_used+0xef8>
    4d74:	912dc000 	add	x0, x0, #0xb70
    4d78:	97fff39e 	bl	1bf0 <perror@plt>
    4d7c:	17ffffec 	b	4d2c <setup_timer+0x7c>
    4d80:	97fff40c 	bl	1db0 <__stack_chk_fail@plt>
    4d84:	d503201f 	nop
    4d88:	d503201f 	nop
    4d8c:	d503201f 	nop

0000000000004d90 <periodic_benchmark>:
    4d90:	d11483ff 	sub	sp, sp, #0x520
    4d94:	f0000021 	adrp	x1, b000 <__FRAME_END__+0x147c>
    4d98:	a9007bfd 	stp	x29, x30, [sp]
    4d9c:	910003fd 	mov	x29, sp
    4da0:	f947f421 	ldr	x1, [x1, #4072]
    4da4:	a90153f3 	stp	x19, x20, [sp, #16]
    4da8:	aa0003f4 	mov	x20, x0
    4dac:	a9046bf9 	stp	x25, x26, [sp, #64]
    4db0:	f0000039 	adrp	x25, b000 <__FRAME_END__+0x147c>
    4db4:	a90573fb 	stp	x27, x28, [sp, #80]
    4db8:	f9400020 	ldr	x0, [x1]
    4dbc:	f9028fe0 	str	x0, [sp, #1304]
    4dc0:	d2800000 	mov	x0, #0x0                   	// #0
    4dc4:	97fff3db 	bl	1d30 <__libc_current_sigrtmin@plt>
    4dc8:	2a0003fb 	mov	w27, w0
    4dcc:	97fff3d9 	bl	1d30 <__libc_current_sigrtmin@plt>
    4dd0:	b9006fe0 	str	w0, [sp, #108]
    4dd4:	97fff3d7 	bl	1d30 <__libc_current_sigrtmin@plt>
    4dd8:	2a0003fa 	mov	w26, w0
    4ddc:	b90073e0 	str	w0, [sp, #112]
    4de0:	97fff3d4 	bl	1d30 <__libc_current_sigrtmin@plt>
    4de4:	f947df21 	ldr	x1, [x25, #4024]
    4de8:	11000400 	add	w0, w0, #0x1
    4dec:	52800042 	mov	w2, #0x2                   	// #2
    4df0:	290e8be0 	stp	w0, w2, [sp, #116]
    4df4:	b9400020 	ldr	w0, [x1]
    4df8:	71000c1f 	cmp	w0, #0x3
    4dfc:	540026c8 	b.hi	52d4 <periodic_benchmark+0x544>  // b.pmore
    4e00:	90000000 	adrp	x0, 4000 <stop_memory_watcher+0x10>
    4e04:	d2800001 	mov	x1, #0x0                   	// #0
    4e08:	911f0000 	add	x0, x0, #0x7c0
    4e0c:	97fff3f5 	bl	1de0 <on_exit@plt>
    4e10:	35003fe0 	cbnz	w0, 560c <periodic_benchmark+0x87c>
    4e14:	a90363f7 	stp	x23, x24, [sp, #48]
    4e18:	90000057 	adrp	x23, c000 <__data_start>
    4e1c:	910502e3 	add	x3, x23, #0x140
    4e20:	b9400293 	ldr	w19, [x20]
    4e24:	d2801000 	mov	x0, #0x80                  	// #128
    4e28:	a9025bf5 	stp	x21, x22, [sp, #32]
    4e2c:	91014296 	add	x22, x20, #0x50
    4e30:	aa1603e1 	mov	x1, x22
    4e34:	f9400695 	ldr	x21, [x20, #8]
    4e38:	f9003c75 	str	x21, [x3, #120]
    4e3c:	b9008073 	str	w19, [x3, #128]
    4e40:	97fff43c 	bl	1f30 <__sched_cpucount@plt>
    4e44:	35002840 	cbnz	w0, 534c <periodic_benchmark+0x5bc>
    4e48:	f947df36 	ldr	x22, [x25, #4024]
    4e4c:	b94002c0 	ldr	w0, [x22]
    4e50:	71000c1f 	cmp	w0, #0x3
    4e54:	54002528 	b.hi	52f8 <periodic_benchmark+0x568>  // b.pmore
    4e58:	7100081f 	cmp	w0, #0x2
    4e5c:	540019c0 	b.eq	5194 <periodic_benchmark+0x404>  // b.none
    4e60:	2a1303e0 	mov	w0, w19
    4e64:	aa1503e1 	mov	x1, x21
    4e68:	97fff64a 	bl	2790 <benchmark_init>
    4e6c:	2a0003f3 	mov	w19, w0
    4e70:	37f81f20 	tbnz	w0, #31, 5254 <periodic_benchmark+0x4c4>
    4e74:	f947df20 	ldr	x0, [x25, #4024]
    4e78:	b9400000 	ldr	w0, [x0]
    4e7c:	71000c1f 	cmp	w0, #0x3
    4e80:	54002ba8 	b.hi	53f4 <periodic_benchmark+0x664>  // b.pmore
    4e84:	910223f6 	add	x22, sp, #0x88
    4e88:	aa1603e0 	mov	x0, x22
    4e8c:	97fff3a1 	bl	1d10 <sigemptyset@plt>
    4e90:	2a0003f3 	mov	w19, w0
    4e94:	3100041f 	cmn	w0, #0x1
    4e98:	54003f40 	b.eq	5680 <periodic_benchmark+0x8f0>  // b.none
    4e9c:	910203fc 	add	x28, sp, #0x80
    4ea0:	9101c3f8 	add	x24, sp, #0x70
    4ea4:	d2800015 	mov	x21, #0x0                   	// #0
    4ea8:	14000004 	b	4eb8 <periodic_benchmark+0x128>
    4eac:	8b1802a0 	add	x0, x21, x24
    4eb0:	910012b5 	add	x21, x21, #0x4
    4eb4:	b940041a 	ldr	w26, [x0, #4]
    4eb8:	2a1a03e1 	mov	w1, w26
    4ebc:	aa1603e0 	mov	x0, x22
    4ec0:	97fff43c 	bl	1fb0 <sigaddset@plt>
    4ec4:	2a0003f3 	mov	w19, w0
    4ec8:	3100041f 	cmn	w0, #0x1
    4ecc:	54001d00 	b.eq	526c <periodic_benchmark+0x4dc>  // b.none
    4ed0:	f10022bf 	cmp	x21, #0x8
    4ed4:	54fffec1 	b.ne	4eac <periodic_benchmark+0x11c>  // b.any
    4ed8:	90000003 	adrp	x3, 4000 <stop_memory_watcher+0x10>
    4edc:	911ec063 	add	x3, x3, #0x7b0
    4ee0:	52800084 	mov	w4, #0x4                   	// #4
    4ee4:	aa1c03e1 	mov	x1, x28
    4ee8:	d2800002 	mov	x2, #0x0                   	// #0
    4eec:	52800040 	mov	w0, #0x2                   	// #2
    4ef0:	f90043e3 	str	x3, [sp, #128]
    4ef4:	b9010be4 	str	w4, [sp, #264]
    4ef8:	97fff3be 	bl	1df0 <sigaction@plt>
    4efc:	2a0003f3 	mov	w19, w0
    4f00:	3100041f 	cmn	w0, #0x1
    4f04:	540039e0 	b.eq	5640 <periodic_benchmark+0x8b0>  // b.none
    4f08:	f947df20 	ldr	x0, [x25, #4024]
    4f0c:	b9400000 	ldr	w0, [x0]
    4f10:	71000c1f 	cmp	w0, #0x3
    4f14:	54002868 	b.hi	5420 <periodic_benchmark+0x690>  // b.pmore
    4f18:	f9402680 	ldr	x0, [x20, #72]
    4f1c:	b50027e0 	cbnz	x0, 5418 <periodic_benchmark+0x688>
    4f20:	f9401e81 	ldr	x1, [x20, #56]
    4f24:	f100003f 	cmp	x1, #0x0
    4f28:	5400008c 	b.gt	4f38 <periodic_benchmark+0x1a8>
    4f2c:	f9401a80 	ldr	x0, [x20, #48]
    4f30:	f100001f 	cmp	x0, #0x0
    4f34:	54000c4d 	b.le	50bc <periodic_benchmark+0x32c>
    4f38:	910502e0 	add	x0, x23, #0x140
    4f3c:	52800002 	mov	w2, #0x0                   	// #0
    4f40:	91016000 	add	x0, x0, #0x58
    4f44:	52800021 	mov	w1, #0x1                   	// #1
    4f48:	97fff3ea 	bl	1ef0 <sem_init@plt>
    4f4c:	2a0003f3 	mov	w19, w0
    4f50:	37f832c0 	tbnz	w0, #31, 55a8 <periodic_benchmark+0x818>
    4f54:	f947df20 	ldr	x0, [x25, #4024]
    4f58:	b9400000 	ldr	w0, [x0]
    4f5c:	71000c1f 	cmp	w0, #0x3
    4f60:	54002de8 	b.hi	551c <periodic_benchmark+0x78c>  // b.pmore
    4f64:	97fff373 	bl	1d30 <__libc_current_sigrtmin@plt>
    4f68:	2a0003f5 	mov	w21, w0
    4f6c:	aa1603e0 	mov	x0, x22
    4f70:	97fff368 	bl	1d10 <sigemptyset@plt>
    4f74:	2a0003f3 	mov	w19, w0
    4f78:	3100041f 	cmn	w0, #0x1
    4f7c:	54003820 	b.eq	5680 <periodic_benchmark+0x8f0>  // b.none
    4f80:	2a1b03e1 	mov	w1, w27
    4f84:	aa1603e0 	mov	x0, x22
    4f88:	97fff40a 	bl	1fb0 <sigaddset@plt>
    4f8c:	3100041f 	cmn	w0, #0x1
    4f90:	54001940 	b.eq	52b8 <periodic_benchmark+0x528>  // b.none
    4f94:	b9406fe0 	ldr	w0, [sp, #108]
    4f98:	1100041a 	add	w26, w0, #0x1
    4f9c:	aa1603e0 	mov	x0, x22
    4fa0:	2a1a03e1 	mov	w1, w26
    4fa4:	97fff403 	bl	1fb0 <sigaddset@plt>
    4fa8:	3100041f 	cmn	w0, #0x1
    4fac:	54001860 	b.eq	52b8 <periodic_benchmark+0x528>  // b.none
    4fb0:	90000003 	adrp	x3, 4000 <stop_memory_watcher+0x10>
    4fb4:	911d0063 	add	x3, x3, #0x740
    4fb8:	52800084 	mov	w4, #0x4                   	// #4
    4fbc:	2a1503e0 	mov	w0, w21
    4fc0:	aa1c03e1 	mov	x1, x28
    4fc4:	d2800002 	mov	x2, #0x0                   	// #0
    4fc8:	f90043e3 	str	x3, [sp, #128]
    4fcc:	b9010be4 	str	w4, [sp, #264]
    4fd0:	97fff388 	bl	1df0 <sigaction@plt>
    4fd4:	2a0003f3 	mov	w19, w0
    4fd8:	3100041f 	cmn	w0, #0x1
    4fdc:	54003320 	b.eq	5640 <periodic_benchmark+0x8b0>  // b.none
    4fe0:	f947df20 	ldr	x0, [x25, #4024]
    4fe4:	b9400000 	ldr	w0, [x0]
    4fe8:	71000c1f 	cmp	w0, #0x3
    4fec:	54002be8 	b.hi	5568 <periodic_benchmark+0x7d8>  // b.pmore
    4ff0:	97fff350 	bl	1d30 <__libc_current_sigrtmin@plt>
    4ff4:	11000415 	add	w21, w0, #0x1
    4ff8:	aa1603e0 	mov	x0, x22
    4ffc:	97fff345 	bl	1d10 <sigemptyset@plt>
    5000:	2a0003f3 	mov	w19, w0
    5004:	3100041f 	cmn	w0, #0x1
    5008:	540033c0 	b.eq	5680 <periodic_benchmark+0x8f0>  // b.none
    500c:	2a1b03e1 	mov	w1, w27
    5010:	aa1603e0 	mov	x0, x22
    5014:	97fff3e7 	bl	1fb0 <sigaddset@plt>
    5018:	3100041f 	cmn	w0, #0x1
    501c:	540014e0 	b.eq	52b8 <periodic_benchmark+0x528>  // b.none
    5020:	2a1a03e1 	mov	w1, w26
    5024:	aa1603e0 	mov	x0, x22
    5028:	97fff3e2 	bl	1fb0 <sigaddset@plt>
    502c:	3100041f 	cmn	w0, #0x1
    5030:	54001440 	b.eq	52b8 <periodic_benchmark+0x528>  // b.none
    5034:	f0ffffe3 	adrp	x3, 4000 <stop_memory_watcher+0x10>
    5038:	91270063 	add	x3, x3, #0x9c0
    503c:	52800084 	mov	w4, #0x4                   	// #4
    
    ############################################################
    # START PATTERN
    ############################################################
    5040:	aa1c03e1 	mov	x1, x28
    5044:	2a1503e0 	mov	w0, w21
    5048:	d2800002 	mov	x2, #0x0                   	// #0
    504c:	f90043e3 	str	x3, [sp, #128]
    ############################################################
    
    5050:	b9010be4 	str	w4, [sp, #264]
    5054:	97fff367 	bl	1df0 <sigaction@plt>
    5058:	2a0003f3 	mov	w19, w0
    505c:	3100041f 	cmn	w0, #0x1
    5060:	54002f00 	b.eq	5640 <periodic_benchmark+0x8b0>  // b.none
    5064:	f947df35 	ldr	x21, [x25, #4024]
    5068:	b94002a0 	ldr	w0, [x21]
    506c:	71000c1f 	cmp	w0, #0x3
    5070:	54001ea8 	b.hi	5444 <periodic_benchmark+0x6b4>  // b.pmore
    5074:	6d410281 	ldp	d1, d0, [x20, #16]
    5078:	1e602020 	fcmp	d1, d0
    507c:	540021a1 	b.ne	54b0 <periodic_benchmark+0x720>  // b.any
    5080:	910502e0 	add	x0, x23, #0x140
    5084:	b900a01f 	str	wzr, [x0, #160]
    5088:	97fff32a 	bl	1d30 <__libc_current_sigrtmin@plt>
    508c:	11000401 	add	w1, w0, #0x1
    5090:	a9430e82 	ldp	x2, x3, [x20, #48]
    5094:	910502e4 	add	x4, x23, #0x140
    5098:	91014080 	add	x0, x4, #0x50
    509c:	97ffff05 	bl	4cb0 <setup_timer>
    50a0:	2a0003f3 	mov	w19, w0
    50a4:	37f827c0 	tbnz	w0, #31, 559c <periodic_benchmark+0x80c>
    50a8:	f947df39 	ldr	x25, [x25, #4024]
    50ac:	b9400320 	ldr	w0, [x25]
    50b0:	71000c1f 	cmp	w0, #0x3
    50b4:	54002868 	b.hi	55c0 <periodic_benchmark+0x830>  // b.pmore
    50b8:	f9401e81 	ldr	x1, [x20, #56]
    50bc:	910502f6 	add	x22, x23, #0x140
    50c0:	f9406a80 	ldr	x0, [x20, #208]
    50c4:	f94082c2 	ldr	x2, [x22, #256]
    50c8:	f100001f 	cmp	x0, #0x0
    50cc:	fa421002 	ccmp	x0, x2, #0x2, ne  // ne = any
    50d0:	54001729 	b.ls	53b4 <periodic_benchmark+0x624>  // b.plast
    50d4:	910162d5 	add	x21, x22, #0x58
    50d8:	1400001c 	b	5148 <periodic_benchmark+0x3b8>
    50dc:	f9401a80 	ldr	x0, [x20, #48]
    50e0:	f100001f 	cmp	x0, #0x0
    50e4:	5400036c 	b.gt	5150 <periodic_benchmark+0x3c0>
    50e8:	f94066c0 	ldr	x0, [x22, #200]
    50ec:	b40014e0 	cbz	x0, 5388 <periodic_benchmark+0x5f8>
    50f0:	6f00e401 	movi	v1.2d, #0x0
    50f4:	3dc03ac0 	ldr	q0, [x22, #224]
    50f8:	94000360 	bl	5e78 <__eqtf2>
    50fc:	34001400 	cbz	w0, 537c <periodic_benchmark+0x5ec>
    5100:	b94082c0 	ldr	w0, [x22, #128]
    5104:	f9403ec1 	ldr	x1, [x22, #120]
    5108:	97fff66e 	bl	2ac0 <benchmark_execution>
    510c:	97fff70d 	bl	2d40 <get_rdtsc>
    5110:	f9006ac0 	str	x0, [x22, #208]
    5114:	97fff70f 	bl	2d50 <get_timestamp>

    5118:	3d803ec0 	str	q0, [x22, #240]
    511c:	f94082c0 	ldr	x0, [x22, #256]
    5120:	f9401e81 	ldr	x1, [x20, #56]
    5124:	91000400 	add	x0, x0, #0x1

    5128:	f90082c0 	str	x0, [x22, #256]
    512c:	b5000061 	cbnz	x1, 5138 <periodic_benchmark+0x3a8>
    5130:	f9401a82 	ldr	x2, [x20, #48]
    5134:	b4001302 	cbz	x2, 5394 <periodic_benchmark+0x604>
    5138:	f9406a82 	ldr	x2, [x20, #208]
    513c:	f100005f 	cmp	x2, #0x0

    ############################################################
    # END PATTERN
    ############################################################
    5140:	fa401042 	ccmp	x2, x0, #0x2, ne  // ne = any
    5144:	54001389 	b.ls	53b4 <periodic_benchmark+0x624>  // b.plast
    5148:	f100003f 	cmp	x1, #0x0
    514c:	54fffc8d 	b.le	50dc <periodic_benchmark+0x34c>
    ############################################################
    
    5150:	aa1503e0 	mov	x0, x21
    5154:	97fff2b3 	bl	1c20 <sem_wait@plt>
    5158:	f9401e81 	ldr	x1, [x20, #56]
    515c:	2a0003f3 	mov	w19, w0
    5160:	f100003f 	cmp	x1, #0x0
    5164:	54ffff6c 	b.gt	5150 <periodic_benchmark+0x3c0>
    5168:	36fffc00 	tbz	w0, #31, 50e8 <periodic_benchmark+0x358>
    516c:	97fff399 	bl	1fd0 <__errno_location@plt>
    5170:	b9400000 	ldr	w0, [x0]
    5174:	7100101f 	cmp	w0, #0x4
    5178:	54fffec0 	b.eq	5150 <periodic_benchmark+0x3c0>  // b.none
    517c:	90000020 	adrp	x0, 9000 <_IO_stdin_used+0x1ef8>
    5180:	91008000 	add	x0, x0, #0x20
    5184:	97fff29b 	bl	1bf0 <perror@plt>
    5188:	a9425bf5 	ldp	x21, x22, [sp, #32]
    518c:	a94363f7 	ldp	x23, x24, [sp, #48]
    5190:	1400003c 	b	5280 <periodic_benchmark+0x4f0>
    5194:	f9402282 	ldr	x2, [x20, #64]
    5198:	f0000000 	adrp	x0, 8000 <_IO_stdin_used+0xef8>
    519c:	912e4000 	add	x0, x0, #0xb90
    51a0:	f0000001 	adrp	x1, 8000 <_IO_stdin_used+0xef8>
    51a4:	91314021 	add	x1, x1, #0xc50
    51a8:	f100005f 	cmp	x2, #0x0
    51ac:	9a820000 	csel	x0, x0, x2, eq  // eq = none
    51b0:	910463f3 	add	x19, sp, #0x118
    51b4:	97fff2c3 	bl	1cc0 <fopen@plt>
    51b8:	aa0003f6 	mov	x22, x0
    51bc:	910502e3 	add	x3, x23, #0x140
    51c0:	d2808002 	mov	x2, #0x400                 	// #1024
    51c4:	52800001 	mov	w1, #0x0                   	// #0
    51c8:	aa1303e0 	mov	x0, x19
    51cc:	f9002076 	str	x22, [x3, #64]
    51d0:	97fff2dc 	bl	1d40 <memset@plt>
    51d4:	aa1303e0 	mov	x0, x19
    51d8:	97fff272 	bl	1ba0 <strlen@plt>
    51dc:	aa0003f5 	mov	x21, x0
    51e0:	d2802302 	mov	x2, #0x118                 	// #280
    51e4:	91045eb5 	add	x21, x21, #0x117
    51e8:	8b000260 	add	x0, x19, x0
    51ec:	f0000001 	adrp	x1, 8000 <_IO_stdin_used+0xef8>
    51f0:	91316021 	add	x1, x1, #0xc58
    51f4:	97fff25b 	bl	1b60 <memcpy@plt>
    51f8:	52800142 	mov	w2, #0xa                   	// #10
    51fc:	78356a62 	strh	w2, [x19, x21]
    5200:	aa1603e1 	mov	x1, x22
    5204:	aa1303e0 	mov	x0, x19
    5208:	97fff26a 	bl	1bb0 <fputs@plt>
    520c:	f9402280 	ldr	x0, [x20, #64]
    5210:	b4000040 	cbz	x0, 5218 <periodic_benchmark+0x488>
    5214:	97fff323 	bl	1ea0 <free@plt>
    5218:	910502e0 	add	x0, x23, #0x140
    521c:	f9402000 	ldr	x0, [x0, #64]
    5220:	b40021c0 	cbz	x0, 5658 <periodic_benchmark+0x8c8>
    5224:	f947df35 	ldr	x21, [x25, #4024]
    5228:	b94002a0 	ldr	w0, [x21]
    522c:	71000c1f 	cmp	w0, #0x3
    5230:	54001888 	b.hi	5540 <periodic_benchmark+0x7b0>  // b.pmore
    5234:	910502e0 	add	x0, x23, #0x140
    5238:	f9403c15 	ldr	x21, [x0, #120]
    523c:	b9408013 	ldr	w19, [x0, #128]
    5240:	aa1503e1 	mov	x1, x21
    5244:	2a1303e0 	mov	w0, w19
    5248:	97fff552 	bl	2790 <benchmark_init>
    524c:	2a0003f3 	mov	w19, w0
    5250:	36ffe120 	tbz	w0, #31, 4e74 <periodic_benchmark+0xe4>
    5254:	f0000000 	adrp	x0, 8000 <_IO_stdin_used+0xef8>
    5258:	91372000 	add	x0, x0, #0xdc8
    525c:	97fff265 	bl	1bf0 <perror@plt>
    5260:	a9425bf5 	ldp	x21, x22, [sp, #32]
    5264:	a94363f7 	ldp	x23, x24, [sp, #48]
    5268:	14000006 	b	5280 <periodic_benchmark+0x4f0>
    526c:	f0000000 	adrp	x0, 8000 <_IO_stdin_used+0xef8>
    5270:	91396000 	add	x0, x0, #0xe58
    5274:	97fff25f 	bl	1bf0 <perror@plt>
    5278:	a9425bf5 	ldp	x21, x22, [sp, #32]
    527c:	a94363f7 	ldp	x23, x24, [sp, #48]
    5280:	d0000020 	adrp	x0, b000 <__FRAME_END__+0x147c>
    5284:	f947f400 	ldr	x0, [x0, #4072]
    5288:	f9428fe2 	ldr	x2, [sp, #1304]
    528c:	f9400001 	ldr	x1, [x0]
    5290:	eb010042 	subs	x2, x2, x1
    5294:	d2800001 	mov	x1, #0x0                   	// #0
    5298:	54001ee1 	b.ne	5674 <periodic_benchmark+0x8e4>  // b.any
    529c:	2a1303e0 	mov	w0, w19
    52a0:	a9407bfd 	ldp	x29, x30, [sp]
    52a4:	a94153f3 	ldp	x19, x20, [sp, #16]
    52a8:	a9446bf9 	ldp	x25, x26, [sp, #64]
    52ac:	a94573fb 	ldp	x27, x28, [sp, #80]
    52b0:	911483ff 	add	sp, sp, #0x520
    52b4:	d65f03c0 	ret
    52b8:	f0000000 	adrp	x0, 8000 <_IO_stdin_used+0xef8>
    52bc:	91396000 	add	x0, x0, #0xe58
    52c0:	12800013 	mov	w19, #0xffffffff            	// #-1
    52c4:	97fff24b 	bl	1bf0 <perror@plt>
    52c8:	a9425bf5 	ldp	x21, x22, [sp, #32]
    52cc:	a94363f7 	ldp	x23, x24, [sp, #48]
    52d0:	17ffffec 	b	5280 <periodic_benchmark+0x4f0>
    52d4:	d0000023 	adrp	x3, b000 <__FRAME_END__+0x147c>
    52d8:	f0000000 	adrp	x0, 8000 <_IO_stdin_used+0xef8>
    52dc:	d2800502 	mov	x2, #0x28                  	// #40
    52e0:	d2800021 	mov	x1, #0x1                   	// #1
    52e4:	f947e463 	ldr	x3, [x3, #4040]
    52e8:	912e8000 	add	x0, x0, #0xba0
    52ec:	f9400063 	ldr	x3, [x3]
    52f0:	97fff304 	bl	1f00 <fwrite@plt>
    52f4:	17fffec3 	b	4e00 <periodic_benchmark+0x70>
    52f8:	d0000033 	adrp	x19, b000 <__FRAME_END__+0x147c>
    52fc:	f0000000 	adrp	x0, 8000 <_IO_stdin_used+0xef8>
    5300:	d28004a2 	mov	x2, #0x25                  	// #37
    5304:	9130a000 	add	x0, x0, #0xc28
    5308:	f947e663 	ldr	x3, [x19, #4040]
    530c:	d2800021 	mov	x1, #0x1                   	// #1
    5310:	f9400063 	ldr	x3, [x3]
    5314:	97fff2fb 	bl	1f00 <fwrite@plt>
    5318:	b94002c0 	ldr	w0, [x22]
    531c:	7100081f 	cmp	w0, #0x2
    5320:	54fff3a0 	b.eq	5194 <periodic_benchmark+0x404>  // b.none
    5324:	71000c1f 	cmp	w0, #0x3
    5328:	54fff869 	b.ls	5234 <periodic_benchmark+0x4a4>  // b.plast
    532c:	f947e673 	ldr	x19, [x19, #4040]
    5330:	f0000000 	adrp	x0, 8000 <_IO_stdin_used+0xef8>
    5334:	d28003a2 	mov	x2, #0x1d                  	// #29
    5338:	d2800021 	mov	x1, #0x1                   	// #1
    533c:	9136a000 	add	x0, x0, #0xda8
    5340:	f9400263 	ldr	x3, [x19]
    5344:	97fff2ef 	bl	1f00 <fwrite@plt>
    5348:	17ffffbb 	b	5234 <periodic_benchmark+0x4a4>
    534c:	aa1603e2 	mov	x2, x22
    5350:	d2801001 	mov	x1, #0x80                  	// #128
    5354:	52800000 	mov	w0, #0x0                   	// #0
    5358:	97fff2ce 	bl	1e90 <sched_setaffinity@plt>
    535c:	36ffd760 	tbz	w0, #31, 4e48 <periodic_benchmark+0xb8>
    5360:	f947df39 	ldr	x25, [x25, #4024]
    5364:	b9400320 	ldr	w0, [x25]
    5368:	35001980 	cbnz	w0, 5698 <periodic_benchmark+0x908>
    536c:	a9425bf5 	ldp	x21, x22, [sp, #32]
    5370:	a94363f7 	ldp	x23, x24, [sp, #48]
    5374:	12800013 	mov	w19, #0xffffffff            	// #-1
    5378:	17ffffc2 	b	5280 <periodic_benchmark+0x4f0>
    537c:	97fff675 	bl	2d50 <get_timestamp>
    5380:	3d803ac0 	str	q0, [x22, #224]
    5384:	17ffff5f 	b	5100 <periodic_benchmark+0x370>
    5388:	97fff66e 	bl	2d40 <get_rdtsc>
    538c:	f90066c0 	str	x0, [x22, #200]
    5390:	17ffff58 	b	50f0 <periodic_benchmark+0x360>
    5394:	12800000 	mov	w0, #0xffffffff            	// #-1
    5398:	97fffd8a 	bl	49c0 <period_handler>
    539c:	f9406a82 	ldr	x2, [x20, #208]
    53a0:	f94082c0 	ldr	x0, [x22, #256]
    53a4:	f100005f 	cmp	x2, #0x0
    53a8:	f9401e81 	ldr	x1, [x20, #56]
    53ac:	fa401042 	ccmp	x2, x0, #0x2, ne  // ne = any
    53b0:	54ffecc8 	b.hi	5148 <periodic_benchmark+0x3b8>  // b.pmore
    53b4:	f100003f 	cmp	x1, #0x0
    53b8:	54000ead 	b.le	558c <periodic_benchmark+0x7fc>
    53bc:	910502f3 	add	x19, x23, #0x140
    53c0:	91016273 	add	x19, x19, #0x58
    53c4:	14000005 	b	53d8 <periodic_benchmark+0x648>
    53c8:	97fff302 	bl	1fd0 <__errno_location@plt>
    53cc:	b9400000 	ldr	w0, [x0]
    53d0:	7100101f 	cmp	w0, #0x4
    53d4:	54000081 	b.ne	53e4 <periodic_benchmark+0x654>  // b.any
    53d8:	aa1303e0 	mov	x0, x19
    53dc:	97fff211 	bl	1c20 <sem_wait@plt>
    53e0:	37ffff40 	tbnz	w0, #31, 53c8 <periodic_benchmark+0x638>
    53e4:	52800013 	mov	w19, #0x0                   	// #0
    53e8:	a9425bf5 	ldp	x21, x22, [sp, #32]
    53ec:	a94363f7 	ldp	x23, x24, [sp, #48]
    53f0:	17ffffa4 	b	5280 <periodic_benchmark+0x4f0>
    53f4:	d0000023 	adrp	x3, b000 <__FRAME_END__+0x147c>
    53f8:	f0000000 	adrp	x0, 8000 <_IO_stdin_used+0xef8>
    53fc:	d2800502 	mov	x2, #0x28                  	// #40
    5400:	d2800021 	mov	x1, #0x1                   	// #1
    5404:	f947e463 	ldr	x3, [x3, #4040]
    5408:	9137e000 	add	x0, x0, #0xdf8
    540c:	f9400063 	ldr	x3, [x3]
    5410:	97fff2bc 	bl	1f00 <fwrite@plt>
    5414:	17fffe9c 	b	4e84 <periodic_benchmark+0xf4>
    5418:	97fffa82 	bl	3e20 <start_memory_watcher>
    541c:	17fffec1 	b	4f20 <periodic_benchmark+0x190>
    5420:	d0000023 	adrp	x3, b000 <__FRAME_END__+0x147c>
    5424:	f0000000 	adrp	x0, 8000 <_IO_stdin_used+0xef8>
    5428:	d28003c2 	mov	x2, #0x1e                  	// #30
    542c:	d2800021 	mov	x1, #0x1                   	// #1
    5430:	f947e463 	ldr	x3, [x3, #4040]
    5434:	913ae000 	add	x0, x0, #0xeb8
    5438:	f9400063 	ldr	x3, [x3]
    543c:	97fff2b1 	bl	1f00 <fwrite@plt>
    5440:	17fffeb6 	b	4f18 <periodic_benchmark+0x188>
    5444:	d0000033 	adrp	x19, b000 <__FRAME_END__+0x147c>
    5448:	f0000000 	adrp	x0, 8000 <_IO_stdin_used+0xef8>
    544c:	d2800402 	mov	x2, #0x20                  	// #32
    5450:	913d8000 	add	x0, x0, #0xf60
    5454:	f947e673 	ldr	x19, [x19, #4040]
    5458:	d2800021 	mov	x1, #0x1                   	// #1
    545c:	f9400263 	ldr	x3, [x19]
    5460:	97fff2a8 	bl	1f00 <fwrite@plt>
    5464:	b94002a0 	ldr	w0, [x21]
    5468:	71000c1f 	cmp	w0, #0x3
    546c:	54ffe049 	b.ls	5074 <periodic_benchmark+0x2e4>  // b.plast
    5470:	f9400263 	ldr	x3, [x19]
    5474:	f0000000 	adrp	x0, 8000 <_IO_stdin_used+0xef8>
    5478:	d2800442 	mov	x2, #0x22                  	// #34
    547c:	913e2000 	add	x0, x0, #0xf88
    5480:	d2800021 	mov	x1, #0x1                   	// #1
    5484:	97fff29f 	bl	1f00 <fwrite@plt>
    5488:	b94002a0 	ldr	w0, [x21]
    548c:	71000c1f 	cmp	w0, #0x3
    5490:	54ffdf29 	b.ls	5074 <periodic_benchmark+0x2e4>  // b.plast
    5494:	f9400263 	ldr	x3, [x19]
    5498:	f0000000 	adrp	x0, 8000 <_IO_stdin_used+0xef8>
    549c:	d28002c2 	mov	x2, #0x16                  	// #22
    54a0:	d2800021 	mov	x1, #0x1                   	// #1
    54a4:	913ec000 	add	x0, x0, #0xfb0
    54a8:	97fff296 	bl	1f00 <fwrite@plt>
    54ac:	17fffef2 	b	5074 <periodic_benchmark+0x2e4>
    54b0:	910502f5 	add	x21, x23, #0x140
    54b4:	52800020 	mov	w0, #0x1                   	// #1
    54b8:	b900a2a0 	str	w0, [x21, #160]
    54bc:	97fff21d 	bl	1d30 <__libc_current_sigrtmin@plt>
    54c0:	d2800003 	mov	x3, #0x0                   	// #0
    54c4:	2a0003e1 	mov	w1, w0
    54c8:	d2800002 	mov	x2, #0x0                   	// #0
    54cc:	910122a0 	add	x0, x21, #0x48
    54d0:	97fffdf8 	bl	4cb0 <setup_timer>
    54d4:	2a0003f3 	mov	w19, w0
    54d8:	37f80620 	tbnz	w0, #31, 559c <periodic_benchmark+0x80c>
    54dc:	f947df20 	ldr	x0, [x25, #4024]
    54e0:	a90afebf 	stp	xzr, xzr, [x21, #168]
    54e4:	a9420a83 	ldp	x3, x2, [x20, #32]
    54e8:	a90b8aa3 	stp	x3, x2, [x21, #184]
    54ec:	b9400000 	ldr	w0, [x0]
    54f0:	71000c1f 	cmp	w0, #0x3
    54f4:	54ffdca9 	b.ls	5088 <periodic_benchmark+0x2f8>  // b.plast
    54f8:	d0000023 	adrp	x3, b000 <__FRAME_END__+0x147c>
    54fc:	f0000000 	adrp	x0, 8000 <_IO_stdin_used+0xef8>
    5500:	d28003c2 	mov	x2, #0x1e                  	// #30
    5504:	d2800021 	mov	x1, #0x1                   	// #1
    5508:	f947e463 	ldr	x3, [x3, #4040]
    550c:	913f2000 	add	x0, x0, #0xfc8
    5510:	f9400063 	ldr	x3, [x3]
    5514:	97fff27b 	bl	1f00 <fwrite@plt>
    5518:	17fffedc 	b	5088 <periodic_benchmark+0x2f8>
    551c:	d0000023 	adrp	x3, b000 <__FRAME_END__+0x147c>
    5520:	f0000000 	adrp	x0, 8000 <_IO_stdin_used+0xef8>
    5524:	d2800522 	mov	x2, #0x29                  	// #41
    5528:	d2800021 	mov	x1, #0x1                   	// #1
    552c:	f947e463 	ldr	x3, [x3, #4040]
    5530:	913c2000 	add	x0, x0, #0xf08
    5534:	f9400063 	ldr	x3, [x3]
    5538:	97fff272 	bl	1f00 <fwrite@plt>
    553c:	17fffe8a 	b	4f64 <periodic_benchmark+0x1d4>
    5540:	d0000033 	adrp	x19, b000 <__FRAME_END__+0x147c>
    5544:	f0000000 	adrp	x0, 8000 <_IO_stdin_used+0xef8>
    5548:	d2800362 	mov	x2, #0x1b                  	// #27
    554c:	91362000 	add	x0, x0, #0xd88
    5550:	f947e663 	ldr	x3, [x19, #4040]
    5554:	d2800021 	mov	x1, #0x1                   	// #1
    5558:	f9400063 	ldr	x3, [x3]
    555c:	97fff269 	bl	1f00 <fwrite@plt>
    5560:	b94002a0 	ldr	w0, [x21]
    5564:	17ffff70 	b	5324 <periodic_benchmark+0x594>
    5568:	d0000023 	adrp	x3, b000 <__FRAME_END__+0x147c>
    556c:	f0000000 	adrp	x0, 8000 <_IO_stdin_used+0xef8>
    5570:	d2800442 	mov	x2, #0x22                  	// #34
    5574:	d2800021 	mov	x1, #0x1                   	// #1
    5578:	f947e463 	ldr	x3, [x3, #4040]
    557c:	913ce000 	add	x0, x0, #0xf38
    5580:	f9400063 	ldr	x3, [x3]
    5584:	97fff25f 	bl	1f00 <fwrite@plt>
    5588:	17fffe9a 	b	4ff0 <periodic_benchmark+0x260>
    558c:	f9401a80 	ldr	x0, [x20, #48]
    5590:	f100001f 	cmp	x0, #0x0
    5594:	54fff14c 	b.gt	53bc <periodic_benchmark+0x62c>
    5598:	17ffff93 	b	53e4 <periodic_benchmark+0x654>
    559c:	a9425bf5 	ldp	x21, x22, [sp, #32]
    55a0:	a94363f7 	ldp	x23, x24, [sp, #48]
    55a4:	17ffff37 	b	5280 <periodic_benchmark+0x4f0>
    55a8:	f0000000 	adrp	x0, 8000 <_IO_stdin_used+0xef8>
    55ac:	913b6000 	add	x0, x0, #0xed8
    55b0:	97fff190 	bl	1bf0 <perror@plt>
    55b4:	a9425bf5 	ldp	x21, x22, [sp, #32]
    55b8:	a94363f7 	ldp	x23, x24, [sp, #48]
    55bc:	17ffff31 	b	5280 <periodic_benchmark+0x4f0>
    55c0:	d0000033 	adrp	x19, b000 <__FRAME_END__+0x147c>
    55c4:	f0000000 	adrp	x0, 8000 <_IO_stdin_used+0xef8>
    55c8:	d2800382 	mov	x2, #0x1c                  	// #28
    55cc:	913fa000 	add	x0, x0, #0xfe8
    55d0:	f947e673 	ldr	x19, [x19, #4040]
    55d4:	d2800021 	mov	x1, #0x1                   	// #1
    55d8:	f9400263 	ldr	x3, [x19]
    55dc:	97fff249 	bl	1f00 <fwrite@plt>
    55e0:	b9400320 	ldr	w0, [x25]
    55e4:	71000c1f 	cmp	w0, #0x3
    55e8:	54ffd689 	b.ls	50b8 <periodic_benchmark+0x328>  // b.plast
    55ec:	f9400263 	ldr	x3, [x19]
    55f0:	d2800021 	mov	x1, #0x1                   	// #1
    55f4:	90000020 	adrp	x0, 9000 <_IO_stdin_used+0x1ef8>
    55f8:	d28002c2 	mov	x2, #0x16                  	// #22
    55fc:	91002000 	add	x0, x0, #0x8
    5600:	97fff240 	bl	1f00 <fwrite@plt>
    5604:	f9401e81 	ldr	x1, [x20, #56]
    5608:	17fffead 	b	50bc <periodic_benchmark+0x32c>
    560c:	f947df39 	ldr	x25, [x25, #4024]
    5610:	b9400320 	ldr	w0, [x25]
    5614:	34ffeb00 	cbz	w0, 5374 <periodic_benchmark+0x5e4>
    5618:	d0000023 	adrp	x3, b000 <__FRAME_END__+0x147c>
    561c:	f0000000 	adrp	x0, 8000 <_IO_stdin_used+0xef8>
    5620:	d2800542 	mov	x2, #0x2a                  	// #42
    5624:	d2800021 	mov	x1, #0x1                   	// #1
    5628:	f947e463 	ldr	x3, [x3, #4040]
    562c:	12800013 	mov	w19, #0xffffffff            	// #-1
    5630:	912f4000 	add	x0, x0, #0xbd0
    5634:	f9400063 	ldr	x3, [x3]
    5638:	97fff232 	bl	1f00 <fwrite@plt>
    563c:	17ffff11 	b	5280 <periodic_benchmark+0x4f0>
    5640:	f0000000 	adrp	x0, 8000 <_IO_stdin_used+0xef8>
    5644:	913a2000 	add	x0, x0, #0xe88
    5648:	97fff16a 	bl	1bf0 <perror@plt>
    564c:	a9425bf5 	ldp	x21, x22, [sp, #32]
    5650:	a94363f7 	ldp	x23, x24, [sp, #48]
    5654:	17ffff0b 	b	5280 <periodic_benchmark+0x4f0>
    5658:	f0000000 	adrp	x0, 8000 <_IO_stdin_used+0xef8>
    565c:	9135c000 	add	x0, x0, #0xd70
    5660:	12800013 	mov	w19, #0xffffffff            	// #-1
    5664:	97fff163 	bl	1bf0 <perror@plt>
    5668:	a9425bf5 	ldp	x21, x22, [sp, #32]
    566c:	a94363f7 	ldp	x23, x24, [sp, #48]
    5670:	17ffff04 	b	5280 <periodic_benchmark+0x4f0>
    5674:	a9025bf5 	stp	x21, x22, [sp, #32]
    5678:	a90363f7 	stp	x23, x24, [sp, #48]
    567c:	97fff1cd 	bl	1db0 <__stack_chk_fail@plt>
    5680:	f0000000 	adrp	x0, 8000 <_IO_stdin_used+0xef8>
    5684:	9138a000 	add	x0, x0, #0xe28
    5688:	97fff15a 	bl	1bf0 <perror@plt>
    568c:	a9425bf5 	ldp	x21, x22, [sp, #32]
    5690:	a94363f7 	ldp	x23, x24, [sp, #48]
    5694:	17fffefb 	b	5280 <periodic_benchmark+0x4f0>
    5698:	d0000023 	adrp	x3, b000 <__FRAME_END__+0x147c>
    569c:	f0000000 	adrp	x0, 8000 <_IO_stdin_used+0xef8>
    56a0:	d2800442 	mov	x2, #0x22                  	// #34
    56a4:	91300000 	add	x0, x0, #0xc00
    56a8:	f947e463 	ldr	x3, [x3, #4040]
    56ac:	d2800021 	mov	x1, #0x1                   	// #1
    56b0:	12800013 	mov	w19, #0xffffffff            	// #-1
    56b4:	f9400063 	ldr	x3, [x3]
    56b8:	97fff212 	bl	1f00 <fwrite@plt>
    56bc:	a9425bf5 	ldp	x21, x22, [sp, #32]
    56c0:	a94363f7 	ldp	x23, x24, [sp, #48]
    56c4:	17fffeef 	b	5280 <periodic_benchmark+0x4f0>

00000000000056c8 <__divtf3>:
    56c8:	a9be7bfd 	stp	x29, x30, [sp, #-32]!
    56cc:	910003fd 	mov	x29, sp
    56d0:	3d8007e0 	str	q0, [sp, #16]
    56d4:	a94123e1 	ldp	x1, x8, [sp, #16]
    56d8:	3d8007e1 	str	q1, [sp, #16]
    56dc:	a9412be7 	ldp	x7, x10, [sp, #16]
    56e0:	d53b4406 	mrs	x6, fpcr
    56e4:	d340bd03 	ubfx	x3, x8, #0, #48
    56e8:	d370f909 	ubfx	x9, x8, #48, #15
    56ec:	d37ffd08 	lsr	x8, x8, #63
    56f0:	12001d05 	and	w5, w8, #0xff
    56f4:	340001a9 	cbz	w9, 5728 <__divtf3+0x60>
    56f8:	528fffe2 	mov	w2, #0x7fff                	// #32767
    56fc:	6b02013f 	cmp	w9, w2
    5700:	54000440 	b.eq	5788 <__divtf3+0xc0>  // b.none
    5704:	92403d29 	and	x9, x9, #0xffff
    5708:	93c1f463 	extr	x3, x3, x1, #61
    570c:	9287ffcb 	mov	x11, #0xffffffffffffc001    	// #-16383
    5710:	b24d0062 	orr	x2, x3, #0x8000000000000
    5714:	d37df021 	lsl	x1, x1, #3
    5718:	8b0b0129 	add	x9, x9, x11
    571c:	d280000c 	mov	x12, #0x0                   	// #0
    5720:	52800000 	mov	w0, #0x0                   	// #0
    5724:	14000020 	b	57a4 <__divtf3+0xdc>
    5728:	aa030022 	orr	x2, x1, x3
    572c:	b4000782 	cbz	x2, 581c <__divtf3+0x154>
    5730:	dac01020 	clz	x0, x1
    5734:	dac01062 	clz	x2, x3
    5738:	f100007f 	cmp	x3, #0x0
    573c:	91010000 	add	x0, x0, #0x40
    5740:	9a820000 	csel	x0, x0, x2, eq  // eq = none
    5744:	d1003c02 	sub	x2, x0, #0xf
    5748:	f100f05f 	cmp	x2, #0x3c
    574c:	5400016c 	b.gt	5778 <__divtf3+0xb0>
    5750:	11000c49 	add	w9, w2, #0x3
    5754:	528007a4 	mov	w4, #0x3d                  	// #61
    5758:	4b020082 	sub	w2, w4, w2
    575c:	9ac92063 	lsl	x3, x3, x9
    5760:	9ac22422 	lsr	x2, x1, x2
    5764:	aa030042 	orr	x2, x2, x3
    5768:	9ac92021 	lsl	x1, x1, x9
    576c:	9287fdc9 	mov	x9, #0xffffffffffffc011    	// #-16367
    5770:	cb000129 	sub	x9, x9, x0
    5774:	17ffffea 	b	571c <__divtf3+0x54>
    5778:	5100f442 	sub	w2, w2, #0x3d
    577c:	9ac22022 	lsl	x2, x1, x2
    5780:	d2800001 	mov	x1, #0x0                   	// #0
    5784:	17fffffa 	b	576c <__divtf3+0xa4>
    5788:	aa030022 	orr	x2, x1, x3
    578c:	b4000502 	cbz	x2, 582c <__divtf3+0x164>
    5790:	d36ffc60 	lsr	x0, x3, #47
    5794:	aa0303e2 	mov	x2, x3
    5798:	52000000 	eor	w0, w0, #0x1
    579c:	d28fffe9 	mov	x9, #0x7fff                	// #32767
    57a0:	d280006c 	mov	x12, #0x3                   	// #3
    57a4:	d37ffd4b 	lsr	x11, x10, #63
    57a8:	d340bd44 	ubfx	x4, x10, #0, #48
    57ac:	d370f943 	ubfx	x3, x10, #48, #15
    57b0:	12001d70 	and	w16, w11, #0xff
    57b4:	34000443 	cbz	w3, 583c <__divtf3+0x174>
    57b8:	528fffea 	mov	w10, #0x7fff                	// #32767
    57bc:	6b0a007f 	cmp	w3, w10
    57c0:	540006e0 	b.eq	589c <__divtf3+0x1d4>  // b.none
    57c4:	92403c63 	and	x3, x3, #0xffff
    57c8:	93c7f484 	extr	x4, x4, x7, #61
    57cc:	9287ffca 	mov	x10, #0xffffffffffffc001    	// #-16383
    57d0:	b24d0084 	orr	x4, x4, #0x8000000000000
    57d4:	d37df0e7 	lsl	x7, x7, #3
    57d8:	8b0a0063 	add	x3, x3, x10
    57dc:	d280000a 	mov	x10, #0x0                   	// #0
    57e0:	cb030129 	sub	x9, x9, x3
    57e4:	aa0c0943 	orr	x3, x10, x12, lsl #2
    57e8:	4a1000a5 	eor	w5, w5, w16
    57ec:	d1000463 	sub	x3, x3, #0x1
    57f0:	92401ca5 	and	x5, x5, #0xff
    57f4:	f100387f 	cmp	x3, #0xe
    57f8:	54000748 	b.hi	58e0 <__divtf3+0x218>  // b.pmore
    57fc:	7100387f 	cmp	w3, #0xe
    5800:	54000708 	b.hi	58e0 <__divtf3+0x218>  // b.pmore
    5804:	9000002d 	adrp	x13, 9000 <_IO_stdin_used+0x1ef8>
    5808:	910111ad 	add	x13, x13, #0x44
    580c:	786359ad 	ldrh	w13, [x13, w3, uxtw #1]
    5810:	10000063 	adr	x3, 581c <__divtf3+0x154>
    5814:	8b2da86d 	add	x13, x3, w13, sxth #2
    5818:	d61f01a0 	br	x13
    581c:	d2800001 	mov	x1, #0x0                   	// #0
    5820:	d2800009 	mov	x9, #0x0                   	// #0
    5824:	d280002c 	mov	x12, #0x1                   	// #1
    5828:	17ffffbe 	b	5720 <__divtf3+0x58>
    582c:	d2800001 	mov	x1, #0x0                   	// #0
    5830:	d28fffe9 	mov	x9, #0x7fff                	// #32767
    5834:	d280004c 	mov	x12, #0x2                   	// #2
    5838:	17ffffba 	b	5720 <__divtf3+0x58>
    583c:	aa0400e3 	orr	x3, x7, x4
    5840:	b40003c3 	cbz	x3, 58b8 <__divtf3+0x1f0>
    5844:	dac010ea 	clz	x10, x7
    5848:	f100009f 	cmp	x4, #0x0
    584c:	dac01083 	clz	x3, x4
    5850:	9101014a 	add	x10, x10, #0x40
    5854:	9a83014a 	csel	x10, x10, x3, eq  // eq = none
    5858:	d1003d4d 	sub	x13, x10, #0xf
    585c:	f100f1bf 	cmp	x13, #0x3c
    5860:	5400016c 	b.gt	588c <__divtf3+0x1c4>
    5864:	11000daf 	add	w15, w13, #0x3
    5868:	528007ae 	mov	w14, #0x3d                  	// #61
    586c:	4b0d01cd 	sub	w13, w14, w13
    5870:	9acf2084 	lsl	x4, x4, x15
    5874:	9acd24ed 	lsr	x13, x7, x13
    5878:	aa0401a4 	orr	x4, x13, x4
    587c:	9acf20e7 	lsl	x7, x7, x15
    5880:	9287fdc3 	mov	x3, #0xffffffffffffc011    	// #-16367
    5884:	cb0a0063 	sub	x3, x3, x10
    5888:	17ffffd5 	b	57dc <__divtf3+0x114>
    588c:	5100f5ad 	sub	w13, w13, #0x3d
    5890:	9acd20e4 	lsl	x4, x7, x13
    5894:	d2800007 	mov	x7, #0x0                   	// #0
    5898:	17fffffa 	b	5880 <__divtf3+0x1b8>
    589c:	aa0400e3 	orr	x3, x7, x4
    58a0:	b4000163 	cbz	x3, 58cc <__divtf3+0x204>
    58a4:	f251009f 	tst	x4, #0x800000000000
    58a8:	d28fffe3 	mov	x3, #0x7fff                	// #32767
    58ac:	1a9f1400 	csinc	w0, w0, wzr, ne  // ne = any
    58b0:	d280006a 	mov	x10, #0x3                   	// #3
    58b4:	17ffffcb 	b	57e0 <__divtf3+0x118>
    58b8:	d2800004 	mov	x4, #0x0                   	// #0
    58bc:	d2800007 	mov	x7, #0x0                   	// #0
    58c0:	d2800003 	mov	x3, #0x0                   	// #0
    58c4:	d280002a 	mov	x10, #0x1                   	// #1
    58c8:	17ffffc6 	b	57e0 <__divtf3+0x118>
    58cc:	d2800004 	mov	x4, #0x0                   	// #0
    58d0:	d2800007 	mov	x7, #0x0                   	// #0
    58d4:	d28fffe3 	mov	x3, #0x7fff                	// #32767
    58d8:	d280004a 	mov	x10, #0x2                   	// #2
    58dc:	17ffffc1 	b	57e0 <__divtf3+0x118>
    58e0:	eb02009f 	cmp	x4, x2
    58e4:	54000063 	b.cc	58f0 <__divtf3+0x228>  // b.lo, b.ul, b.last
    58e8:	fa4100e2 	ccmp	x7, x1, #0x2, eq  // eq = none
    58ec:	540014e8 	b.hi	5b88 <__divtf3+0x4c0>  // b.pmore
    58f0:	d341002a 	lsl	x10, x1, #63
    58f4:	93c10441 	extr	x1, x2, x1, #1
    58f8:	d341fc42 	lsr	x2, x2, #1
    58fc:	d354cc83 	ubfx	x3, x4, #20, #32
    5900:	93c7d088 	extr	x8, x4, x7, #52
    5904:	92407d0c 	and	x12, x8, #0xffffffff
    5908:	d374cce7 	lsl	x7, x7, #12
    590c:	9ac30844 	udiv	x4, x2, x3
    5910:	9b038882 	msub	x2, x4, x3, x2
    5914:	9b047d8b 	mul	x11, x12, x4
    5918:	93c18042 	extr	x2, x2, x1, #32
    591c:	eb02017f 	cmp	x11, x2
    5920:	540013a9 	b.ls	5b94 <__divtf3+0x4cc>  // b.plast
    5924:	d100048f 	sub	x15, x4, #0x1
    5928:	ab020102 	adds	x2, x8, x2
    592c:	540000a2 	b.cs	5940 <__divtf3+0x278>  // b.hs, b.nlast
    5930:	eb02017f 	cmp	x11, x2
    5934:	54000069 	b.ls	5940 <__divtf3+0x278>  // b.plast
    5938:	d100088f 	sub	x15, x4, #0x2
    593c:	8b080042 	add	x2, x2, x8
    5940:	cb0b0042 	sub	x2, x2, x11
    5944:	92407c21 	and	x1, x1, #0xffffffff
    5948:	9ac30844 	udiv	x4, x2, x3
    594c:	9b038882 	msub	x2, x4, x3, x2
    5950:	9b047d8b 	mul	x11, x12, x4
    5954:	aa028021 	orr	x1, x1, x2, lsl #32
    5958:	eb01017f 	cmp	x11, x1
    595c:	54001209 	b.ls	5b9c <__divtf3+0x4d4>  // b.plast
    5960:	d1000482 	sub	x2, x4, #0x1
    5964:	ab010101 	adds	x1, x8, x1
    5968:	540000a2 	b.cs	597c <__divtf3+0x2b4>  // b.hs, b.nlast
    596c:	eb01017f 	cmp	x11, x1
    5970:	54000069 	b.ls	597c <__divtf3+0x2b4>  // b.plast
    5974:	d1000882 	sub	x2, x4, #0x2
    5978:	8b080021 	add	x1, x1, x8
    597c:	aa0f804f 	orr	x15, x2, x15, lsl #32
    5980:	92407cee 	and	x14, x7, #0xffffffff
    5984:	d360fce4 	lsr	x4, x7, #32
    5988:	cb0b0021 	sub	x1, x1, x11
    598c:	d360fded 	lsr	x13, x15, #32
    5990:	92407deb 	and	x11, x15, #0xffffffff
    5994:	9b0e7db0 	mul	x16, x13, x14
    5998:	9b0e7d62 	mul	x2, x11, x14
    599c:	9b0b408b 	madd	x11, x4, x11, x16
    59a0:	9b047dad 	mul	x13, x13, x4
    59a4:	8b42816b 	add	x11, x11, x2, lsr #32
    59a8:	eb0b021f 	cmp	x16, x11
    59ac:	54000069 	b.ls	59b8 <__divtf3+0x2f0>  // b.plast
    59b0:	d2c00030 	mov	x16, #0x100000000           	// #4294967296
    59b4:	8b1001ad 	add	x13, x13, x16
    59b8:	8b4b81ad 	add	x13, x13, x11, lsr #32
    59bc:	92407c42 	and	x2, x2, #0xffffffff
    59c0:	8b0b804b 	add	x11, x2, x11, lsl #32
    59c4:	eb0d003f 	cmp	x1, x13
    59c8:	54000063 	b.cc	59d4 <__divtf3+0x30c>  // b.lo, b.ul, b.last
    59cc:	fa4b0142 	ccmp	x10, x11, #0x2, eq  // eq = none
    59d0:	54000ea2 	b.cs	5ba4 <__divtf3+0x4dc>  // b.hs, b.nlast
    59d4:	ab070150 	adds	x16, x10, x7
    59d8:	d10005e2 	sub	x2, x15, #0x1
    59dc:	9a080021 	adc	x1, x1, x8
    59e0:	9a9f37f1 	cset	x17, cs  // cs = hs, nlast
    59e4:	aa1003ea 	mov	x10, x16
    59e8:	eb01011f 	cmp	x8, x1
    59ec:	54000083 	b.cc	59fc <__divtf3+0x334>  // b.lo, b.ul, b.last
    59f0:	f100023f 	cmp	x17, #0x0
    59f4:	fa410100 	ccmp	x8, x1, #0x0, eq  // eq = none
    59f8:	54000121 	b.ne	5a1c <__divtf3+0x354>  // b.any
    59fc:	eb0101bf 	cmp	x13, x1
    5a00:	54000068 	b.hi	5a0c <__divtf3+0x344>  // b.pmore
    5a04:	fa500160 	ccmp	x11, x16, #0x0, eq  // eq = none
    5a08:	540000a9 	b.ls	5a1c <__divtf3+0x354>  // b.plast
    5a0c:	ab1000f0 	adds	x16, x7, x16
    5a10:	d10009e2 	sub	x2, x15, #0x2
    5a14:	aa1003ea 	mov	x10, x16
    5a18:	9a080021 	adc	x1, x1, x8
    5a1c:	eb0b014a 	subs	x10, x10, x11
    5a20:	da0d0021 	sbc	x1, x1, x13
    5a24:	eb01011f 	cmp	x8, x1
    5a28:	54001080 	b.eq	5c38 <__divtf3+0x570>  // b.none
    5a2c:	9ac3082d 	udiv	x13, x1, x3
    5a30:	9b0385a1 	msub	x1, x13, x3, x1
    5a34:	9b0d7d8f 	mul	x15, x12, x13
    5a38:	93ca8021 	extr	x1, x1, x10, #32
    5a3c:	eb0101ff 	cmp	x15, x1
    5a40:	54000b69 	b.ls	5bac <__divtf3+0x4e4>  // b.plast
    5a44:	d10005ab 	sub	x11, x13, #0x1
    5a48:	ab010101 	adds	x1, x8, x1
    5a4c:	540000a2 	b.cs	5a60 <__divtf3+0x398>  // b.hs, b.nlast
    5a50:	eb0101ff 	cmp	x15, x1
    5a54:	54000069 	b.ls	5a60 <__divtf3+0x398>  // b.plast
    5a58:	d10009ab 	sub	x11, x13, #0x2
    5a5c:	8b080021 	add	x1, x1, x8
    5a60:	cb0f0021 	sub	x1, x1, x15
    5a64:	92407d4a 	and	x10, x10, #0xffffffff
    5a68:	9ac3082d 	udiv	x13, x1, x3
    5a6c:	9b0385a3 	msub	x3, x13, x3, x1
    5a70:	9b0d7d8c 	mul	x12, x12, x13
    5a74:	aa038143 	orr	x3, x10, x3, lsl #32
    5a78:	eb03019f 	cmp	x12, x3
    5a7c:	540009c9 	b.ls	5bb4 <__divtf3+0x4ec>  // b.plast
    5a80:	d10005a1 	sub	x1, x13, #0x1
    5a84:	ab030103 	adds	x3, x8, x3
    5a88:	540000a2 	b.cs	5a9c <__divtf3+0x3d4>  // b.hs, b.nlast
    5a8c:	eb03019f 	cmp	x12, x3
    5a90:	54000069 	b.ls	5a9c <__divtf3+0x3d4>  // b.plast
    5a94:	d10009a1 	sub	x1, x13, #0x2
    5a98:	8b080063 	add	x3, x3, x8
    5a9c:	aa0b802b 	orr	x11, x1, x11, lsl #32
    5aa0:	cb0c0063 	sub	x3, x3, x12
    5aa4:	92407d6c 	and	x12, x11, #0xffffffff
    5aa8:	d360fd6a 	lsr	x10, x11, #32
    5aac:	9b0c7dc1 	mul	x1, x14, x12
    5ab0:	9b0e7d4e 	mul	x14, x10, x14
    5ab4:	9b0a7c8a 	mul	x10, x4, x10
    5ab8:	9b0c3884 	madd	x4, x4, x12, x14
    5abc:	8b418084 	add	x4, x4, x1, lsr #32
    5ac0:	eb0401df 	cmp	x14, x4
    5ac4:	54000069 	b.ls	5ad0 <__divtf3+0x408>  // b.plast
    5ac8:	d2c0002c 	mov	x12, #0x100000000           	// #4294967296
    5acc:	8b0c014a 	add	x10, x10, x12
    5ad0:	8b44814a 	add	x10, x10, x4, lsr #32
    5ad4:	92407c21 	and	x1, x1, #0xffffffff
    5ad8:	8b048024 	add	x4, x1, x4, lsl #32
    5adc:	eb0a007f 	cmp	x3, x10
    5ae0:	54000083 	b.cc	5af0 <__divtf3+0x428>  // b.lo, b.ul, b.last
    5ae4:	f100009f 	cmp	x4, #0x0
    5ae8:	fa4a1060 	ccmp	x3, x10, #0x0, ne  // ne = any
    5aec:	54000681 	b.ne	5bbc <__divtf3+0x4f4>  // b.any
    5af0:	ab03010c 	adds	x12, x8, x3
    5af4:	d1000561 	sub	x1, x11, #0x1
    5af8:	aa0c03e3 	mov	x3, x12
    5afc:	54000162 	b.cs	5b28 <__divtf3+0x460>  // b.hs, b.nlast
    5b00:	eb0a019f 	cmp	x12, x10
    5b04:	54000063 	b.cc	5b10 <__divtf3+0x448>  // b.lo, b.ul, b.last
    5b08:	fa4400e2 	ccmp	x7, x4, #0x2, eq  // eq = none
    5b0c:	540000e2 	b.cs	5b28 <__divtf3+0x460>  // b.hs, b.nlast
    5b10:	d1000961 	sub	x1, x11, #0x2
    5b14:	d37ff8eb 	lsl	x11, x7, #1
    5b18:	eb0b00ff 	cmp	x7, x11
    5b1c:	aa0b03e7 	mov	x7, x11
    5b20:	9a889503 	cinc	x3, x8, hi  // hi = pmore
    5b24:	8b030183 	add	x3, x12, x3
    5b28:	eb0a007f 	cmp	x3, x10
    5b2c:	aa0103e3 	mov	x3, x1
    5b30:	fa4400e0 	ccmp	x7, x4, #0x0, eq  // eq = none
    5b34:	b2400021 	orr	x1, x1, #0x1
    5b38:	9a831021 	csel	x1, x1, x3, ne  // ne = any
    5b3c:	d287ffe3 	mov	x3, #0x3fff                	// #16383
    5b40:	8b030123 	add	x3, x9, x3
    5b44:	f100007f 	cmp	x3, #0x0
    5b48:	54000ded 	b.le	5d04 <__divtf3+0x63c>
    5b4c:	f240083f 	tst	x1, #0x7
    5b50:	54000800 	b.eq	5c50 <__divtf3+0x588>  // b.none
    5b54:	926a04c4 	and	x4, x6, #0xc00000
    5b58:	321c0000 	orr	w0, w0, #0x10
    5b5c:	f150009f 	cmp	x4, #0x400, lsl #12
    5b60:	54000700 	b.eq	5c40 <__divtf3+0x578>  // b.none
    5b64:	f160009f 	cmp	x4, #0x800, lsl #12
    5b68:	54000720 	b.eq	5c4c <__divtf3+0x584>  // b.none
    5b6c:	b5000724 	cbnz	x4, 5c50 <__divtf3+0x588>
    5b70:	92400c24 	and	x4, x1, #0xf
    5b74:	f100109f 	cmp	x4, #0x4
    5b78:	540006c0 	b.eq	5c50 <__divtf3+0x588>  // b.none
    5b7c:	b1001021 	adds	x1, x1, #0x4
    5b80:	9a823442 	cinc	x2, x2, cs  // cs = hs, nlast
    5b84:	14000033 	b	5c50 <__divtf3+0x588>
    5b88:	d1000529 	sub	x9, x9, #0x1
    5b8c:	d280000a 	mov	x10, #0x0                   	// #0
    5b90:	17ffff5b 	b	58fc <__divtf3+0x234>
    5b94:	aa0403ef 	mov	x15, x4
    5b98:	17ffff6a 	b	5940 <__divtf3+0x278>
    5b9c:	aa0403e2 	mov	x2, x4
    5ba0:	17ffff77 	b	597c <__divtf3+0x2b4>
    5ba4:	aa0f03e2 	mov	x2, x15
    5ba8:	17ffff9d 	b	5a1c <__divtf3+0x354>
    5bac:	aa0d03eb 	mov	x11, x13
    5bb0:	17ffffac 	b	5a60 <__divtf3+0x398>
    5bb4:	aa0d03e1 	mov	x1, x13
    5bb8:	17ffffb9 	b	5a9c <__divtf3+0x3d4>
    5bbc:	aa0b03e1 	mov	x1, x11
    5bc0:	d2800007 	mov	x7, #0x0                   	// #0
    5bc4:	17ffffd9 	b	5b28 <__divtf3+0x460>
    5bc8:	b67800a2 	tbz	x2, #47, 5bdc <__divtf3+0x514>
    5bcc:	b7780084 	tbnz	x4, #47, 5bdc <__divtf3+0x514>
    5bd0:	aa0403e2 	mov	x2, x4
    5bd4:	aa0703e1 	mov	x1, x7
    5bd8:	aa0b03e8 	mov	x8, x11
    5bdc:	b2510042 	orr	x2, x2, #0x800000000000
    5be0:	aa0803e5 	mov	x5, x8
    5be4:	d28fffe3 	mov	x3, #0x7fff                	// #32767
    5be8:	14000022 	b	5c70 <__divtf3+0x5a8>
    5bec:	321f0000 	orr	w0, w0, #0x2
    5bf0:	d2800002 	mov	x2, #0x0                   	// #0
    5bf4:	d2800001 	mov	x1, #0x0                   	// #0
    5bf8:	17fffffb 	b	5be4 <__divtf3+0x51c>
    5bfc:	aa0803e5 	mov	x5, x8
    5c00:	aa0c03ea 	mov	x10, x12
    5c04:	f100055f 	cmp	x10, #0x1
    5c08:	54001320 	b.eq	5e6c <__divtf3+0x7a4>  // b.none
    5c0c:	b4fff98a 	cbz	x10, 5b3c <__divtf3+0x474>
    5c10:	f100095f 	cmp	x10, #0x2
    5c14:	54fffee0 	b.eq	5bf0 <__divtf3+0x528>  // b.none
    5c18:	f1000d5f 	cmp	x10, #0x3
    5c1c:	54fff901 	b.ne	5b3c <__divtf3+0x474>  // b.any
    5c20:	aa0503e8 	mov	x8, x5
    5c24:	17ffffee 	b	5bdc <__divtf3+0x514>
    5c28:	aa0403e2 	mov	x2, x4
    5c2c:	aa0703e1 	mov	x1, x7
    5c30:	aa0b03e5 	mov	x5, x11
    5c34:	17fffff4 	b	5c04 <__divtf3+0x53c>
    5c38:	92800001 	mov	x1, #0xffffffffffffffff    	// #-1
    5c3c:	17ffffc0 	b	5b3c <__divtf3+0x474>
    5c40:	b5000085 	cbnz	x5, 5c50 <__divtf3+0x588>
    5c44:	b1002021 	adds	x1, x1, #0x8
    5c48:	17ffffce 	b	5b80 <__divtf3+0x4b8>
    5c4c:	b5ffffc5 	cbnz	x5, 5c44 <__divtf3+0x57c>
    5c50:	b6a00062 	tbz	x2, #52, 5c5c <__divtf3+0x594>
    5c54:	924bf842 	and	x2, x2, #0xffefffffffffffff
    5c58:	91401123 	add	x3, x9, #0x4, lsl #12
    5c5c:	d28fffc4 	mov	x4, #0x7ffe                	// #32766
    5c60:	eb04007f 	cmp	x3, x4
    5c64:	5400020c 	b.gt	5ca4 <__divtf3+0x5dc>
    5c68:	93c10c41 	extr	x1, x2, x1, #3
    5c6c:	d343fc42 	lsr	x2, x2, #3
    5c70:	92403863 	and	x3, x3, #0x7fff
    5c74:	d2800007 	mov	x7, #0x0                   	// #0
    5c78:	b340bc47 	bfxil	x7, x2, #0, #48
    5c7c:	2a053c65 	orr	w5, w3, w5, lsl #15
    5c80:	9e670020 	fmov	d0, x1
    5c84:	b3503ca7 	bfi	x7, x5, #48, #16
    5c88:	9eaf00e0 	fmov	v0.d[1], x7
    5c8c:	34000080 	cbz	w0, 5c9c <__divtf3+0x5d4>
    5c90:	3d8007e0 	str	q0, [sp, #16]
    5c94:	940004fb 	bl	7080 <__sfp_handle_exceptions>
    5c98:	3dc007e0 	ldr	q0, [sp, #16]
    5c9c:	a8c27bfd 	ldp	x29, x30, [sp], #32
    5ca0:	d65f03c0 	ret
    5ca4:	926a04c1 	and	x1, x6, #0xc00000
    5ca8:	f150003f 	cmp	x1, #0x400, lsl #12
    5cac:	54000120 	b.eq	5cd0 <__divtf3+0x608>  // b.none
    5cb0:	f160003f 	cmp	x1, #0x800, lsl #12
    5cb4:	54000180 	b.eq	5ce4 <__divtf3+0x61c>  // b.none
    5cb8:	b5000201 	cbnz	x1, 5cf8 <__divtf3+0x630>
    5cbc:	d28fffe3 	mov	x3, #0x7fff                	// #32767
    5cc0:	52800282 	mov	w2, #0x14                  	// #20
    5cc4:	2a020000 	orr	w0, w0, w2
    5cc8:	aa0103e2 	mov	x2, x1
    5ccc:	17ffffe9 	b	5c70 <__divtf3+0x5a8>
    5cd0:	f10000bf 	cmp	x5, #0x0
    5cd4:	d28fffe3 	mov	x3, #0x7fff                	// #32767
    5cd8:	da9f03e1 	csetm	x1, ne  // ne = any
    5cdc:	9a840063 	csel	x3, x3, x4, eq  // eq = none
    5ce0:	17fffff8 	b	5cc0 <__divtf3+0x5f8>
    5ce4:	f10000bf 	cmp	x5, #0x0
    5ce8:	d28fffe3 	mov	x3, #0x7fff                	// #32767
    5cec:	da9f13e1 	csetm	x1, eq  // eq = none
    5cf0:	9a841063 	csel	x3, x3, x4, ne  // ne = any
    5cf4:	17fffff3 	b	5cc0 <__divtf3+0x5f8>
    5cf8:	aa0403e3 	mov	x3, x4
    5cfc:	92800001 	mov	x1, #0xffffffffffffffff    	// #-1
    5d00:	17fffff0 	b	5cc0 <__divtf3+0x5f8>
    5d04:	d2800024 	mov	x4, #0x1                   	// #1
    5d08:	cb030083 	sub	x3, x4, x3
    5d0c:	f101d07f 	cmp	x3, #0x74
    5d10:	5400074c 	b.gt	5df8 <__divtf3+0x730>
    5d14:	f100fc7f 	cmp	x3, #0x3f
    5d18:	5400034c 	b.gt	5d80 <__divtf3+0x6b8>
    5d1c:	52800807 	mov	w7, #0x40                  	// #64
    5d20:	4b0300e7 	sub	w7, w7, w3
    5d24:	9ac32428 	lsr	x8, x1, x3
    5d28:	9ac72044 	lsl	x4, x2, x7
    5d2c:	aa080084 	orr	x4, x4, x8
    5d30:	9ac72027 	lsl	x7, x1, x7
    5d34:	f10000ff 	cmp	x7, #0x0
    5d38:	9a9f07e1 	cset	x1, ne  // ne = any
    5d3c:	9ac32442 	lsr	x2, x2, x3
    5d40:	aa010081 	orr	x1, x4, x1
    5d44:	f240083f 	tst	x1, #0x7
    5d48:	540003e0 	b.eq	5dc4 <__divtf3+0x6fc>  // b.none
    5d4c:	926a04c3 	and	x3, x6, #0xc00000
    5d50:	321c0000 	orr	w0, w0, #0x10
    5d54:	f150007f 	cmp	x3, #0x400, lsl #12
    5d58:	540002e0 	b.eq	5db4 <__divtf3+0x6ec>  // b.none
    5d5c:	f160007f 	cmp	x3, #0x800, lsl #12
    5d60:	54000300 	b.eq	5dc0 <__divtf3+0x6f8>  // b.none
    5d64:	b5000303 	cbnz	x3, 5dc4 <__divtf3+0x6fc>
    5d68:	92400c23 	and	x3, x1, #0xf
    5d6c:	f100107f 	cmp	x3, #0x4
    5d70:	540002a0 	b.eq	5dc4 <__divtf3+0x6fc>  // b.none
    5d74:	b1001021 	adds	x1, x1, #0x4
    5d78:	9a823442 	cinc	x2, x2, cs  // cs = hs, nlast
    5d7c:	14000012 	b	5dc4 <__divtf3+0x6fc>
    5d80:	51010064 	sub	w4, w3, #0x40
    5d84:	52801007 	mov	w7, #0x80                  	// #128
    5d88:	4b0300e7 	sub	w7, w7, w3
    5d8c:	f101007f 	cmp	x3, #0x40
    5d90:	9ac42444 	lsr	x4, x2, x4
    5d94:	9ac72042 	lsl	x2, x2, x7
    5d98:	9a9f1042 	csel	x2, x2, xzr, ne  // ne = any
    5d9c:	aa010041 	orr	x1, x2, x1
    5da0:	d2800002 	mov	x2, #0x0                   	// #0
    5da4:	f100003f 	cmp	x1, #0x0
    5da8:	9a9f07e1 	cset	x1, ne  // ne = any
    5dac:	aa010081 	orr	x1, x4, x1
    5db0:	17ffffe5 	b	5d44 <__divtf3+0x67c>
    5db4:	b5000085 	cbnz	x5, 5dc4 <__divtf3+0x6fc>
    5db8:	b1002021 	adds	x1, x1, #0x8
    5dbc:	17ffffef 	b	5d78 <__divtf3+0x6b0>
    5dc0:	b5ffffc5 	cbnz	x5, 5db8 <__divtf3+0x6f0>
    5dc4:	b69800e2 	tbz	x2, #51, 5de0 <__divtf3+0x718>
    5dc8:	321c0000 	orr	w0, w0, #0x10
    5dcc:	d2800002 	mov	x2, #0x0                   	// #0
    5dd0:	d2800001 	mov	x1, #0x0                   	// #0
    5dd4:	d2800023 	mov	x3, #0x1                   	// #1
    5dd8:	321d0000 	orr	w0, w0, #0x8
    5ddc:	17ffffa5 	b	5c70 <__divtf3+0x5a8>
    5de0:	d2800003 	mov	x3, #0x0                   	// #0
    5de4:	93c10c41 	extr	x1, x2, x1, #3
    5de8:	d343fc42 	lsr	x2, x2, #3
    5dec:	3727ff60 	tbnz	w0, #4, 5dd8 <__divtf3+0x710>
    5df0:	365ff406 	tbz	w6, #11, 5c70 <__divtf3+0x5a8>
    5df4:	17fffff9 	b	5dd8 <__divtf3+0x710>
    5df8:	aa020021 	orr	x1, x1, x2
    5dfc:	b4000161 	cbz	x1, 5e28 <__divtf3+0x760>
    5e00:	926a04c6 	and	x6, x6, #0xc00000
    5e04:	321c0000 	orr	w0, w0, #0x10
    5e08:	f15000df 	cmp	x6, #0x400, lsl #12
    5e0c:	54000160 	b.eq	5e38 <__divtf3+0x770>  // b.none
    5e10:	f16000df 	cmp	x6, #0x800, lsl #12
    5e14:	540001a0 	b.eq	5e48 <__divtf3+0x780>  // b.none
    5e18:	f10000df 	cmp	x6, #0x0
    5e1c:	d28000a1 	mov	x1, #0x5                   	// #5
    5e20:	9a811084 	csel	x4, x4, x1, ne  // ne = any
    5e24:	d343fc81 	lsr	x1, x4, #3
    5e28:	321d0000 	orr	w0, w0, #0x8
    5e2c:	d2800002 	mov	x2, #0x0                   	// #0
    5e30:	d2800003 	mov	x3, #0x0                   	// #0
    5e34:	17ffff8f 	b	5c70 <__divtf3+0x5a8>
    5e38:	f10000bf 	cmp	x5, #0x0
    5e3c:	d2800121 	mov	x1, #0x9                   	// #9
    5e40:	9a840024 	csel	x4, x1, x4, eq  // eq = none
    5e44:	17fffff8 	b	5e24 <__divtf3+0x75c>
    5e48:	f10000bf 	cmp	x5, #0x0
    5e4c:	d2800121 	mov	x1, #0x9                   	// #9
    5e50:	9a841024 	csel	x4, x1, x4, ne  // ne = any
    5e54:	17fffff4 	b	5e24 <__divtf3+0x75c>
    5e58:	92ffffe2 	mov	x2, #0xffffffffffff        	// #281474976710655
    5e5c:	92800001 	mov	x1, #0xffffffffffffffff    	// #-1
    5e60:	52800020 	mov	w0, #0x1                   	// #1
    5e64:	d2800008 	mov	x8, #0x0                   	// #0
    5e68:	17ffff5d 	b	5bdc <__divtf3+0x514>
    5e6c:	d2800002 	mov	x2, #0x0                   	// #0
    5e70:	d2800001 	mov	x1, #0x0                   	// #0
    5e74:	17ffffef 	b	5e30 <__divtf3+0x768>

0000000000005e78 <__eqtf2>:
    5e78:	a9be7bfd 	stp	x29, x30, [sp, #-32]!
    5e7c:	910003fd 	mov	x29, sp
    5e80:	3d8007e0 	str	q0, [sp, #16]
    5e84:	a94103e8 	ldp	x8, x0, [sp, #16]
    5e88:	3d8007e1 	str	q1, [sp, #16]
    5e8c:	a94107e9 	ldp	x9, x1, [sp, #16]
    5e90:	d53b4402 	mrs	x2, fpcr
    5e94:	d370f803 	ubfx	x3, x0, #48, #15
    5e98:	d340bc02 	ubfx	x2, x0, #0, #48
    5e9c:	d340bc27 	ubfx	x7, x1, #0, #48
    5ea0:	d37ffc00 	lsr	x0, x0, #63
    5ea4:	d370f825 	ubfx	x5, x1, #48, #15
    5ea8:	d37ffc21 	lsr	x1, x1, #63
    5eac:	d28fffea 	mov	x10, #0x7fff                	// #32767
    5eb0:	aa0803e4 	mov	x4, x8
    5eb4:	12001c00 	and	w0, w0, #0xff
    5eb8:	aa0903e6 	mov	x6, x9
    5ebc:	12001c21 	and	w1, w1, #0xff
    5ec0:	eb0a007f 	cmp	x3, x10
    5ec4:	540000c1 	b.ne	5edc <__eqtf2+0x64>  // b.any
    5ec8:	aa08004a 	orr	x10, x2, x8
    5ecc:	b50003ea 	cbnz	x10, 5f48 <__eqtf2+0xd0>
    5ed0:	eb0300bf 	cmp	x5, x3
    5ed4:	540004e1 	b.ne	5f70 <__eqtf2+0xf8>  // b.any
    5ed8:	14000003 	b	5ee4 <__eqtf2+0x6c>
    5edc:	eb0a00bf 	cmp	x5, x10
    5ee0:	54000061 	b.ne	5eec <__eqtf2+0x74>  // b.any
    5ee4:	aa0600ea 	orr	x10, x7, x6
    5ee8:	b500026a 	cbnz	x10, 5f34 <__eqtf2+0xbc>
    5eec:	eb05007f 	cmp	x3, x5
    5ef0:	54000401 	b.ne	5f70 <__eqtf2+0xf8>  // b.any
    5ef4:	eb07005f 	cmp	x2, x7
    5ef8:	fa490100 	ccmp	x8, x9, #0x0, eq  // eq = none
    5efc:	540003a1 	b.ne	5f70 <__eqtf2+0xf8>  // b.any
    5f00:	6b01001f 	cmp	w0, w1
    5f04:	54000140 	b.eq	5f2c <__eqtf2+0xb4>  // b.none
    5f08:	b5000343 	cbnz	x3, 5f70 <__eqtf2+0xf8>
    5f0c:	aa040042 	orr	x2, x2, x4
    5f10:	f100005f 	cmp	x2, #0x0
    5f14:	1a9f07e0 	cset	w0, ne  // ne = any
    5f18:	a8c27bfd 	ldp	x29, x30, [sp], #32
    5f1c:	d65f03c0 	ret
    5f20:	52800020 	mov	w0, #0x1                   	// #1
    5f24:	94000457 	bl	7080 <__sfp_handle_exceptions>
    5f28:	14000012 	b	5f70 <__eqtf2+0xf8>
    5f2c:	52800000 	mov	w0, #0x0                   	// #0
    5f30:	17fffffa 	b	5f18 <__eqtf2+0xa0>
    5f34:	d28fffe0 	mov	x0, #0x7fff                	// #32767
    5f38:	eb00007f 	cmp	x3, x0
    5f3c:	54000161 	b.ne	5f68 <__eqtf2+0xf0>  // b.any
    5f40:	aa040044 	orr	x4, x2, x4
    5f44:	b4000124 	cbz	x4, 5f68 <__eqtf2+0xf0>
    5f48:	f251005f 	tst	x2, #0x800000000000
    5f4c:	54fffea0 	b.eq	5f20 <__eqtf2+0xa8>  // b.none
    5f50:	d28fffe1 	mov	x1, #0x7fff                	// #32767
    5f54:	52800020 	mov	w0, #0x1                   	// #1
    5f58:	eb0100bf 	cmp	x5, x1
    5f5c:	54fffde1 	b.ne	5f18 <__eqtf2+0xa0>  // b.any
    5f60:	aa0600e6 	orr	x6, x7, x6
    5f64:	b4fffda6 	cbz	x6, 5f18 <__eqtf2+0xa0>
    5f68:	f25100ff 	tst	x7, #0x800000000000
    5f6c:	54fffda0 	b.eq	5f20 <__eqtf2+0xa8>  // b.none
    5f70:	52800020 	mov	w0, #0x1                   	// #1
    5f74:	17ffffe9 	b	5f18 <__eqtf2+0xa0>

0000000000005f78 <__getf2>:
    5f78:	a9be7bfd 	stp	x29, x30, [sp, #-32]!
    5f7c:	910003fd 	mov	x29, sp
    5f80:	3d8007e0 	str	q0, [sp, #16]
    5f84:	a94107e8 	ldp	x8, x1, [sp, #16]
    5f88:	3d8007e1 	str	q1, [sp, #16]
    5f8c:	a94103e7 	ldp	x7, x0, [sp, #16]
    5f90:	d53b4402 	mrs	x2, fpcr
    5f94:	d370f82a 	ubfx	x10, x1, #48, #15
    5f98:	d37ffc02 	lsr	x2, x0, #63
    5f9c:	d340bc24 	ubfx	x4, x1, #0, #48
    5fa0:	d37ffc21 	lsr	x1, x1, #63
    5fa4:	d340bc03 	ubfx	x3, x0, #0, #48
    5fa8:	d370f809 	ubfx	x9, x0, #48, #15
    5fac:	aa0803e5 	mov	x5, x8
    5fb0:	d28fffe0 	mov	x0, #0x7fff                	// #32767
    5fb4:	12001c21 	and	w1, w1, #0xff
    5fb8:	aa0703e6 	mov	x6, x7
    5fbc:	12001c42 	and	w2, w2, #0xff
    5fc0:	eb00015f 	cmp	x10, x0
    5fc4:	54000061 	b.ne	5fd0 <__getf2+0x58>  // b.any
    5fc8:	aa08008b 	orr	x11, x4, x8
    5fcc:	b50006ab 	cbnz	x11, 60a0 <__getf2+0x128>
    5fd0:	eb00013f 	cmp	x9, x0
    5fd4:	54000061 	b.ne	5fe0 <__getf2+0x68>  // b.any
    5fd8:	aa060060 	orr	x0, x3, x6
    5fdc:	b5000620 	cbnz	x0, 60a0 <__getf2+0x128>
    5fe0:	b500020a 	cbnz	x10, 6020 <__getf2+0xa8>
    5fe4:	aa050085 	orr	x5, x4, x5
    5fe8:	f10000bf 	cmp	x5, #0x0
    5fec:	1a9f17e5 	cset	w5, eq  // eq = none
    5ff0:	b50001c9 	cbnz	x9, 6028 <__getf2+0xb0>
    5ff4:	aa060066 	orr	x6, x3, x6
    5ff8:	f10000df 	cmp	x6, #0x0
    5ffc:	1a9f17e0 	cset	w0, eq  // eq = none
    6000:	6a0000bf 	tst	w5, w0
    6004:	54000561 	b.ne	60b0 <__getf2+0x138>  // b.any
    6008:	92401c42 	and	x2, x2, #0xff
    600c:	34000125 	cbz	w5, 6030 <__getf2+0xb8>
    6010:	f100005f 	cmp	x2, #0x0
    6014:	5a9f10a0 	csinv	w0, w5, wzr, ne  // ne = any
    6018:	a8c27bfd 	ldp	x29, x30, [sp], #32
    601c:	d65f03c0 	ret
    6020:	52800005 	mov	w5, #0x0                   	// #0
    6024:	17fffff3 	b	5ff0 <__getf2+0x78>
    6028:	52800000 	mov	w0, #0x0                   	// #0
    602c:	17fffff7 	b	6008 <__getf2+0x90>
    6030:	92401c21 	and	x1, x1, #0xff
    6034:	34000080 	cbz	w0, 6044 <__getf2+0xcc>
    6038:	f100003f 	cmp	x1, #0x0
    603c:	5a9f0000 	csinv	w0, w0, wzr, eq  // eq = none
    6040:	17fffff6 	b	6018 <__getf2+0xa0>
    6044:	eb02003f 	cmp	x1, x2
    6048:	540000a0 	b.eq	605c <__getf2+0xe4>  // b.none
    604c:	12800000 	mov	w0, #0xffffffff            	// #-1
    6050:	f100003f 	cmp	x1, #0x0
    6054:	5a801400 	cneg	w0, w0, eq  // eq = none
    6058:	17fffff0 	b	6018 <__getf2+0xa0>
    605c:	eb09015f 	cmp	x10, x9
    6060:	54ffff6c 	b.gt	604c <__getf2+0xd4>
    6064:	5400006a 	b.ge	6070 <__getf2+0xf8>  // b.tcont
    6068:	52800020 	mov	w0, #0x1                   	// #1
    606c:	17fffff9 	b	6050 <__getf2+0xd8>
    6070:	eb03009f 	cmp	x4, x3
    6074:	54fffec8 	b.hi	604c <__getf2+0xd4>  // b.pmore
    6078:	1a9f17e2 	cset	w2, eq  // eq = none
    607c:	7100005f 	cmp	w2, #0x0
    6080:	fa471100 	ccmp	x8, x7, #0x0, ne  // ne = any
    6084:	54fffe48 	b.hi	604c <__getf2+0xd4>  // b.pmore
    6088:	eb03009f 	cmp	x4, x3
    608c:	54fffee3 	b.cc	6068 <__getf2+0xf0>  // b.lo, b.ul, b.last
    6090:	7100005f 	cmp	w2, #0x0
    6094:	fa471102 	ccmp	x8, x7, #0x2, ne  // ne = any
    6098:	54fffc02 	b.cs	6018 <__getf2+0xa0>  // b.hs, b.nlast
    609c:	17fffff3 	b	6068 <__getf2+0xf0>
    60a0:	52800020 	mov	w0, #0x1                   	// #1
    60a4:	940003f7 	bl	7080 <__sfp_handle_exceptions>
    60a8:	12800020 	mov	w0, #0xfffffffe            	// #-2
    60ac:	17ffffdb 	b	6018 <__getf2+0xa0>
    60b0:	52800000 	mov	w0, #0x0                   	// #0
    60b4:	17ffffd9 	b	6018 <__getf2+0xa0>

00000000000060b8 <__letf2>:
    60b8:	a9be7bfd 	stp	x29, x30, [sp, #-32]!
    60bc:	910003fd 	mov	x29, sp
    60c0:	3d8007e0 	str	q0, [sp, #16]
    60c4:	a94107e8 	ldp	x8, x1, [sp, #16]
    60c8:	3d8007e1 	str	q1, [sp, #16]
    60cc:	a94103e7 	ldp	x7, x0, [sp, #16]
    60d0:	d53b4402 	mrs	x2, fpcr
    60d4:	d370f82a 	ubfx	x10, x1, #48, #15
    60d8:	d37ffc02 	lsr	x2, x0, #63
    60dc:	d340bc24 	ubfx	x4, x1, #0, #48
    60e0:	d37ffc21 	lsr	x1, x1, #63
    60e4:	d340bc03 	ubfx	x3, x0, #0, #48
    60e8:	d370f809 	ubfx	x9, x0, #48, #15
    60ec:	aa0803e5 	mov	x5, x8
    60f0:	d28fffe0 	mov	x0, #0x7fff                	// #32767
    60f4:	12001c21 	and	w1, w1, #0xff
    60f8:	aa0703e6 	mov	x6, x7
    60fc:	12001c42 	and	w2, w2, #0xff
    6100:	eb00015f 	cmp	x10, x0
    6104:	54000061 	b.ne	6110 <__letf2+0x58>  // b.any
    6108:	aa08008b 	orr	x11, x4, x8
    610c:	b50006ab 	cbnz	x11, 61e0 <__letf2+0x128>
    6110:	eb00013f 	cmp	x9, x0
    6114:	54000061 	b.ne	6120 <__letf2+0x68>  // b.any
    6118:	aa060060 	orr	x0, x3, x6
    611c:	b5000620 	cbnz	x0, 61e0 <__letf2+0x128>
    6120:	b500020a 	cbnz	x10, 6160 <__letf2+0xa8>
    6124:	aa050085 	orr	x5, x4, x5
    6128:	f10000bf 	cmp	x5, #0x0
    612c:	1a9f17e5 	cset	w5, eq  // eq = none
    6130:	b50001c9 	cbnz	x9, 6168 <__letf2+0xb0>
    6134:	aa060066 	orr	x6, x3, x6
    6138:	f10000df 	cmp	x6, #0x0
    613c:	1a9f17e0 	cset	w0, eq  // eq = none
    6140:	6a0000bf 	tst	w5, w0
    6144:	54000561 	b.ne	61f0 <__letf2+0x138>  // b.any
    6148:	92401c42 	and	x2, x2, #0xff
    614c:	34000125 	cbz	w5, 6170 <__letf2+0xb8>
    6150:	f100005f 	cmp	x2, #0x0
    6154:	5a9f10a0 	csinv	w0, w5, wzr, ne  // ne = any
    6158:	a8c27bfd 	ldp	x29, x30, [sp], #32
    615c:	d65f03c0 	ret
    6160:	52800005 	mov	w5, #0x0                   	// #0
    6164:	17fffff3 	b	6130 <__letf2+0x78>
    6168:	52800000 	mov	w0, #0x0                   	// #0
    616c:	17fffff7 	b	6148 <__letf2+0x90>
    6170:	92401c21 	and	x1, x1, #0xff
    6174:	34000080 	cbz	w0, 6184 <__letf2+0xcc>
    6178:	f100003f 	cmp	x1, #0x0
    617c:	5a9f0000 	csinv	w0, w0, wzr, eq  // eq = none
    6180:	17fffff6 	b	6158 <__letf2+0xa0>
    6184:	eb02003f 	cmp	x1, x2
    6188:	540000a0 	b.eq	619c <__letf2+0xe4>  // b.none
    618c:	12800000 	mov	w0, #0xffffffff            	// #-1
    6190:	f100003f 	cmp	x1, #0x0
    6194:	5a801400 	cneg	w0, w0, eq  // eq = none
    6198:	17fffff0 	b	6158 <__letf2+0xa0>
    619c:	eb09015f 	cmp	x10, x9
    61a0:	54ffff6c 	b.gt	618c <__letf2+0xd4>
    61a4:	5400006a 	b.ge	61b0 <__letf2+0xf8>  // b.tcont
    61a8:	52800020 	mov	w0, #0x1                   	// #1
    61ac:	17fffff9 	b	6190 <__letf2+0xd8>
    61b0:	eb03009f 	cmp	x4, x3
    61b4:	54fffec8 	b.hi	618c <__letf2+0xd4>  // b.pmore
    61b8:	1a9f17e2 	cset	w2, eq  // eq = none
    61bc:	7100005f 	cmp	w2, #0x0
    61c0:	fa471100 	ccmp	x8, x7, #0x0, ne  // ne = any
    61c4:	54fffe48 	b.hi	618c <__letf2+0xd4>  // b.pmore
    61c8:	eb03009f 	cmp	x4, x3
    61cc:	54fffee3 	b.cc	61a8 <__letf2+0xf0>  // b.lo, b.ul, b.last
    61d0:	7100005f 	cmp	w2, #0x0
    61d4:	fa471102 	ccmp	x8, x7, #0x2, ne  // ne = any
    61d8:	54fffc02 	b.cs	6158 <__letf2+0xa0>  // b.hs, b.nlast
    61dc:	17fffff3 	b	61a8 <__letf2+0xf0>
    61e0:	52800020 	mov	w0, #0x1                   	// #1
    61e4:	940003a7 	bl	7080 <__sfp_handle_exceptions>
    61e8:	52800040 	mov	w0, #0x2                   	// #2
    61ec:	17ffffdb 	b	6158 <__letf2+0xa0>
    61f0:	52800000 	mov	w0, #0x0                   	// #0
    61f4:	17ffffd9 	b	6158 <__letf2+0xa0>

00000000000061f8 <__subtf3>:
    61f8:	a9be7bfd 	stp	x29, x30, [sp, #-32]!
    61fc:	910003fd 	mov	x29, sp
    6200:	3d8007e0 	str	q0, [sp, #16]
    6204:	a9410fe1 	ldp	x1, x3, [sp, #16]
    6208:	3d8007e1 	str	q1, [sp, #16]
    620c:	a9410bed 	ldp	x13, x2, [sp, #16]
    6210:	d53b4406 	mrs	x6, fpcr
    6214:	d370f840 	ubfx	x0, x2, #48, #15
    6218:	d370f864 	ubfx	x4, x3, #48, #15
    621c:	d37ffc4a 	lsr	x10, x2, #63
    6220:	d37ffc65 	lsr	x5, x3, #63
    6224:	d37dbc42 	ubfiz	x2, x2, #3, #48
    6228:	d37dbc63 	ubfiz	x3, x3, #3, #48
    622c:	aa0103ee 	mov	x14, x1
    6230:	aa41f463 	orr	x3, x3, x1, lsr #61
    6234:	d37df027 	lsl	x7, x1, #3
    6238:	d28fffeb 	mov	x11, #0x7fff                	// #32767
    623c:	aa0403e9 	mov	x9, x4
    6240:	aa0003e8 	mov	x8, x0
    6244:	12001d4a 	and	w10, w10, #0xff
    6248:	aa4df442 	orr	x2, x2, x13, lsr #61
    624c:	d37df1a1 	lsl	x1, x13, #3
    6250:	eb0b001f 	cmp	x0, x11
    6254:	54000261 	b.ne	62a0 <__subtf3+0xa8>  // b.any
    6258:	aa01004b 	orr	x11, x2, x1
    625c:	b400022b 	cbz	x11, 62a0 <__subtf3+0xa8>
    6260:	92401d4a 	and	x10, x10, #0xff
    6264:	4b000084 	sub	w4, w4, w0
    6268:	eb05015f 	cmp	x10, x5
    626c:	54001fc1 	b.ne	6664 <__subtf3+0x46c>  // b.any
    6270:	7100009f 	cmp	w4, #0x0
    6274:	d28fffe0 	mov	x0, #0x7fff                	// #32767
    6278:	540009cd 	b.le	63b0 <__subtf3+0x1b8>
    627c:	b50004e8 	cbnz	x8, 6318 <__subtf3+0x120>
    6280:	aa010048 	orr	x8, x2, x1
    6284:	b5000128 	cbnz	x8, 62a8 <__subtf3+0xb0>
    6288:	eb00013f 	cmp	x9, x0
    628c:	54000340 	b.eq	62f4 <__subtf3+0xfc>  // b.none
    6290:	b4002f29 	cbz	x9, 6874 <__subtf3+0x67c>
    6294:	aa0303e2 	mov	x2, x3
    6298:	aa0703e1 	mov	x1, x7
    629c:	140001fc 	b	6a8c <__subtf3+0x894>
    62a0:	5200014a 	eor	w10, w10, #0x1
    62a4:	17ffffef 	b	6260 <__subtf3+0x68>
    62a8:	71000484 	subs	w4, w4, #0x1
    62ac:	54000201 	b.ne	62ec <__subtf3+0xf4>  // b.any
    62b0:	ab0100e1 	adds	x1, x7, x1
    62b4:	aa0103e7 	mov	x7, x1
    62b8:	9a020063 	adc	x3, x3, x2
    62bc:	b69ffea3 	tbz	x3, #51, 6290 <__subtf3+0x98>
    62c0:	91000528 	add	x8, x9, #0x1
    62c4:	d28fffe0 	mov	x0, #0x7fff                	// #32767
    62c8:	eb00011f 	cmp	x8, x0
    62cc:	54001ae0 	b.eq	6628 <__subtf3+0x430>  // b.none
    62d0:	924cf862 	and	x2, x3, #0xfff7ffffffffffff
    62d4:	924000e1 	and	x1, x7, #0x1
    62d8:	aa470421 	orr	x1, x1, x7, lsr #1
    62dc:	aa03fc21 	orr	x1, x1, x3, lsl #63
    62e0:	d341fc42 	lsr	x2, x2, #1
    62e4:	52800000 	mov	w0, #0x0                   	// #0
    62e8:	1400003d 	b	63dc <__subtf3+0x1e4>
    62ec:	eb00013f 	cmp	x9, x0
    62f0:	540001a1 	b.ne	6324 <__subtf3+0x12c>  // b.any
    62f4:	aa070061 	orr	x1, x3, x7
    62f8:	b4003c81 	cbz	x1, 6a88 <__subtf3+0x890>
    62fc:	d372fc60 	lsr	x0, x3, #50
    6300:	aa0303e2 	mov	x2, x3
    6304:	d2400000 	eor	x0, x0, #0x1
    6308:	aa0703e1 	mov	x1, x7
    630c:	12000000 	and	w0, w0, #0x1
    6310:	aa0903e8 	mov	x8, x9
    6314:	14000032 	b	63dc <__subtf3+0x1e4>
    6318:	eb00013f 	cmp	x9, x0
    631c:	54fffec0 	b.eq	62f4 <__subtf3+0xfc>  // b.none
    6320:	b24d0042 	orr	x2, x2, #0x8000000000000
    6324:	7101d09f 	cmp	w4, #0x74
    6328:	540003cc 	b.gt	63a0 <__subtf3+0x1a8>
    632c:	7100fc9f 	cmp	w4, #0x3f
    6330:	540001ec 	b.gt	636c <__subtf3+0x174>
    6334:	52800808 	mov	w8, #0x40                  	// #64
    6338:	4b040108 	sub	w8, w8, w4
    633c:	9ac4242a 	lsr	x10, x1, x4
    6340:	9ac82040 	lsl	x0, x2, x8
    6344:	aa0a0000 	orr	x0, x0, x10
    6348:	9ac82028 	lsl	x8, x1, x8
    634c:	f100011f 	cmp	x8, #0x0
    6350:	9a9f07e1 	cset	x1, ne  // ne = any
    6354:	9ac42444 	lsr	x4, x2, x4
    6358:	aa010000 	orr	x0, x0, x1
    635c:	ab070000 	adds	x0, x0, x7
    6360:	aa0003e7 	mov	x7, x0
    6364:	9a030083 	adc	x3, x4, x3
    6368:	17ffffd5 	b	62bc <__subtf3+0xc4>
    636c:	51010080 	sub	w0, w4, #0x40
    6370:	52801008 	mov	w8, #0x80                  	// #128
    6374:	4b040108 	sub	w8, w8, w4
    6378:	7101009f 	cmp	w4, #0x40
    637c:	9ac02440 	lsr	x0, x2, x0
    6380:	9ac82042 	lsl	x2, x2, x8
    6384:	9a9f1042 	csel	x2, x2, xzr, ne  // ne = any
    6388:	aa010041 	orr	x1, x2, x1
    638c:	f100003f 	cmp	x1, #0x0
    6390:	9a9f07e1 	cset	x1, ne  // ne = any
    6394:	aa010000 	orr	x0, x0, x1
    6398:	d2800004 	mov	x4, #0x0                   	// #0
    639c:	17fffff0 	b	635c <__subtf3+0x164>
    63a0:	aa010041 	orr	x1, x2, x1
    63a4:	f100003f 	cmp	x1, #0x0
    63a8:	9a9f07e0 	cset	x0, ne  // ne = any
    63ac:	17fffffb 	b	6398 <__subtf3+0x1a0>
    63b0:	540007c0 	b.eq	64a8 <__subtf3+0x2b0>  // b.none
    63b4:	b50004e9 	cbnz	x9, 6450 <__subtf3+0x258>
    63b8:	aa070069 	orr	x9, x3, x7
    63bc:	b5000149 	cbnz	x9, 63e4 <__subtf3+0x1ec>
    63c0:	eb00011f 	cmp	x8, x0
    63c4:	540032c1 	b.ne	6a1c <__subtf3+0x824>  // b.any
    63c8:	aa010040 	orr	x0, x2, x1
    63cc:	b40034c0 	cbz	x0, 6a64 <__subtf3+0x86c>
    63d0:	d372fc40 	lsr	x0, x2, #50
    63d4:	d2400000 	eor	x0, x0, #0x1
    63d8:	12000000 	and	w0, w0, #0x1
    63dc:	52800004 	mov	w4, #0x0                   	// #0
    63e0:	14000041 	b	64e4 <__subtf3+0x2ec>
    63e4:	2a2403e4 	mvn	w4, w4
    63e8:	350000c4 	cbnz	w4, 6400 <__subtf3+0x208>
    63ec:	ab0100e1 	adds	x1, x7, x1
    63f0:	aa0103e7 	mov	x7, x1
    63f4:	9a020063 	adc	x3, x3, x2
    63f8:	aa0803e9 	mov	x9, x8
    63fc:	17ffffb0 	b	62bc <__subtf3+0xc4>
    6400:	eb00011f 	cmp	x8, x0
    6404:	54fffe20 	b.eq	63c8 <__subtf3+0x1d0>  // b.none
    6408:	7101d09f 	cmp	w4, #0x74
    640c:	5400046c 	b.gt	6498 <__subtf3+0x2a0>
    6410:	7100fc9f 	cmp	w4, #0x3f
    6414:	5400028c 	b.gt	6464 <__subtf3+0x26c>
    6418:	52800809 	mov	w9, #0x40                  	// #64
    641c:	4b040129 	sub	w9, w9, w4
    6420:	9ac424ea 	lsr	x10, x7, x4
    6424:	9ac92060 	lsl	x0, x3, x9
    6428:	aa0a0000 	orr	x0, x0, x10
    642c:	9ac920e9 	lsl	x9, x7, x9
    6430:	f100013f 	cmp	x9, #0x0
    6434:	9a9f07e7 	cset	x7, ne  // ne = any
    6438:	9ac42464 	lsr	x4, x3, x4
    643c:	aa070000 	orr	x0, x0, x7
    6440:	ab010000 	adds	x0, x0, x1
    6444:	aa0003e7 	mov	x7, x0
    6448:	9a020083 	adc	x3, x4, x2
    644c:	17ffffeb 	b	63f8 <__subtf3+0x200>
    6450:	eb00011f 	cmp	x8, x0
    6454:	54fffba0 	b.eq	63c8 <__subtf3+0x1d0>  // b.none
    6458:	4b0403e4 	neg	w4, w4
    645c:	b24d0063 	orr	x3, x3, #0x8000000000000
    6460:	17ffffea 	b	6408 <__subtf3+0x210>
    6464:	51010080 	sub	w0, w4, #0x40
    6468:	52801009 	mov	w9, #0x80                  	// #128
    646c:	4b040129 	sub	w9, w9, w4
    6470:	7101009f 	cmp	w4, #0x40
    6474:	9ac02460 	lsr	x0, x3, x0
    6478:	9ac92063 	lsl	x3, x3, x9
    647c:	9a9f1063 	csel	x3, x3, xzr, ne  // ne = any
    6480:	aa070063 	orr	x3, x3, x7
    6484:	f100007f 	cmp	x3, #0x0
    6488:	9a9f07e3 	cset	x3, ne  // ne = any
    648c:	aa030000 	orr	x0, x0, x3
    6490:	d2800004 	mov	x4, #0x0                   	// #0
    6494:	17ffffeb 	b	6440 <__subtf3+0x248>
    6498:	aa070063 	orr	x3, x3, x7
    649c:	f100007f 	cmp	x3, #0x0
    64a0:	9a9f07e0 	cset	x0, ne  // ne = any
    64a4:	17fffffb 	b	6490 <__subtf3+0x298>
    64a8:	9100052b 	add	x11, x9, #0x1
    64ac:	f27f357f 	tst	x11, #0x7ffe
    64b0:	54000881 	b.ne	65c0 <__subtf3+0x3c8>  // b.any
    64b4:	aa07006b 	orr	x11, x3, x7
    64b8:	b5000369 	cbnz	x9, 6524 <__subtf3+0x32c>
    64bc:	b4002c2b 	cbz	x11, 6a40 <__subtf3+0x848>
    64c0:	aa010040 	orr	x0, x2, x1
    64c4:	b4001d80 	cbz	x0, 6874 <__subtf3+0x67c>
    64c8:	ab0100e1 	adds	x1, x7, x1
    64cc:	aa0103e7 	mov	x7, x1
    64d0:	9a020063 	adc	x3, x3, x2
    64d4:	b6981d03 	tbz	x3, #51, 6874 <__subtf3+0x67c>
    64d8:	924cf862 	and	x2, x3, #0xfff7ffffffffffff
    64dc:	52800000 	mov	w0, #0x0                   	// #0
    64e0:	d2800028 	mov	x8, #0x1                   	// #1
    64e4:	f240083f 	tst	x1, #0x7
    64e8:	54002e80 	b.eq	6ab8 <__subtf3+0x8c0>  // b.none
    64ec:	926a04c3 	and	x3, x6, #0xc00000
    64f0:	321c0000 	orr	w0, w0, #0x10
    64f4:	f150007f 	cmp	x3, #0x400, lsl #12
    64f8:	54002d60 	b.eq	6aa4 <__subtf3+0x8ac>  // b.none
    64fc:	f160007f 	cmp	x3, #0x800, lsl #12
    6500:	54002d80 	b.eq	6ab0 <__subtf3+0x8b8>  // b.none
    6504:	b50000c3 	cbnz	x3, 651c <__subtf3+0x324>
    6508:	92400c23 	and	x3, x1, #0xf
    650c:	f100107f 	cmp	x3, #0x4
    6510:	54000060 	b.eq	651c <__subtf3+0x324>  // b.none
    6514:	b1001021 	adds	x1, x1, #0x4
    6518:	9a823442 	cinc	x2, x2, cs  // cs = hs, nlast
    651c:	34002d64 	cbz	w4, 6ac8 <__subtf3+0x8d0>
    6520:	14000169 	b	6ac4 <__subtf3+0x8cc>
    6524:	eb00013f 	cmp	x9, x0
    6528:	54000321 	b.ne	658c <__subtf3+0x394>  // b.any
    652c:	b40033eb 	cbz	x11, 6ba8 <__subtf3+0x9b0>
    6530:	d372fc60 	lsr	x0, x3, #50
    6534:	eb09011f 	cmp	x8, x9
    6538:	d2400000 	eor	x0, x0, #0x1
    653c:	12000000 	and	w0, w0, #0x1
    6540:	54000361 	b.ne	65ac <__subtf3+0x3b4>  // b.any
    6544:	aa010048 	orr	x8, x2, x1
    6548:	b40032c8 	cbz	x8, 6ba0 <__subtf3+0x9a8>
    654c:	f24e005f 	tst	x2, #0x4000000000000
    6550:	1a9f1400 	csinc	w0, w0, wzr, ne  // ne = any
    6554:	b400028b 	cbz	x11, 65a4 <__subtf3+0x3ac>
    6558:	9240f1c1 	and	x1, x14, #0x1fffffffffffffff
    655c:	d343fc67 	lsr	x7, x3, #3
    6560:	aa03f421 	orr	x1, x1, x3, lsl #61
    6564:	b69000e3 	tbz	x3, #50, 6580 <__subtf3+0x388>
    6568:	d343fc43 	lsr	x3, x2, #3
    656c:	b79000a2 	tbnz	x2, #50, 6580 <__subtf3+0x388>
    6570:	9240f1a1 	and	x1, x13, #0x1fffffffffffffff
    6574:	aa0303e7 	mov	x7, x3
    6578:	aa02f421 	orr	x1, x1, x2, lsl #61
    657c:	aa0a03e5 	mov	x5, x10
    6580:	93c1f4e2 	extr	x2, x7, x1, #61
    6584:	d37df021 	lsl	x1, x1, #3
    6588:	14000007 	b	65a4 <__subtf3+0x3ac>
    658c:	eb00011f 	cmp	x8, x0
    6590:	54000061 	b.ne	659c <__subtf3+0x3a4>  // b.any
    6594:	52800000 	mov	w0, #0x0                   	// #0
    6598:	17ffffeb 	b	6544 <__subtf3+0x34c>
    659c:	52800000 	mov	w0, #0x0                   	// #0
    65a0:	b500006b 	cbnz	x11, 65ac <__subtf3+0x3b4>
    65a4:	d28fffe8 	mov	x8, #0x7fff                	// #32767
    65a8:	17ffffcf 	b	64e4 <__subtf3+0x2ec>
    65ac:	aa010041 	orr	x1, x2, x1
    65b0:	b5fffd41 	cbnz	x1, 6558 <__subtf3+0x360>
    65b4:	aa0303e2 	mov	x2, x3
    65b8:	aa0703e1 	mov	x1, x7
    65bc:	17fffffa 	b	65a4 <__subtf3+0x3ac>
    65c0:	eb00017f 	cmp	x11, x0
    65c4:	54000100 	b.eq	65e4 <__subtf3+0x3ec>  // b.none
    65c8:	ab0100e1 	adds	x1, x7, x1
    65cc:	aa0b03e8 	mov	x8, x11
    65d0:	9a020063 	adc	x3, x3, x2
    65d4:	d341fc62 	lsr	x2, x3, #1
    65d8:	93c10461 	extr	x1, x3, x1, #1
    65dc:	52800000 	mov	w0, #0x0                   	// #0
    65e0:	17ffffc1 	b	64e4 <__subtf3+0x2ec>
    65e4:	f26a04c1 	ands	x1, x6, #0xc00000
    65e8:	54002440 	b.eq	6a70 <__subtf3+0x878>  // b.none
    65ec:	f150003f 	cmp	x1, #0x400, lsl #12
    65f0:	540000c1 	b.ne	6608 <__subtf3+0x410>  // b.any
    65f4:	b5000105 	cbnz	x5, 6614 <__subtf3+0x41c>
    65f8:	aa0b03e8 	mov	x8, x11
    65fc:	d2800002 	mov	x2, #0x0                   	// #0
    6600:	d2800001 	mov	x1, #0x0                   	// #0
    6604:	14000007 	b	6620 <__subtf3+0x428>
    6608:	f160003f 	cmp	x1, #0x800, lsl #12
    660c:	54000041 	b.ne	6614 <__subtf3+0x41c>  // b.any
    6610:	b5ffff45 	cbnz	x5, 65f8 <__subtf3+0x400>
    6614:	92800002 	mov	x2, #0xffffffffffffffff    	// #-1
    6618:	aa0203e1 	mov	x1, x2
    661c:	d28fffc8 	mov	x8, #0x7ffe                	// #32766
    6620:	52800280 	mov	w0, #0x14                  	// #20
    6624:	17ffffb0 	b	64e4 <__subtf3+0x2ec>
    6628:	f26a04c1 	ands	x1, x6, #0xc00000
    662c:	54002280 	b.eq	6a7c <__subtf3+0x884>  // b.none
    6630:	f150003f 	cmp	x1, #0x400, lsl #12
    6634:	540000a1 	b.ne	6648 <__subtf3+0x450>  // b.any
    6638:	b50000e5 	cbnz	x5, 6654 <__subtf3+0x45c>
    663c:	d2800002 	mov	x2, #0x0                   	// #0
    6640:	d2800001 	mov	x1, #0x0                   	// #0
    6644:	1400010f 	b	6a80 <__subtf3+0x888>
    6648:	f160003f 	cmp	x1, #0x800, lsl #12
    664c:	54000041 	b.ne	6654 <__subtf3+0x45c>  // b.any
    6650:	b5ffff65 	cbnz	x5, 663c <__subtf3+0x444>
    6654:	92800002 	mov	x2, #0xffffffffffffffff    	// #-1
    6658:	d28fffc8 	mov	x8, #0x7ffe                	// #32766
    665c:	aa0203e1 	mov	x1, x2
    6660:	14000108 	b	6a80 <__subtf3+0x888>
    6664:	7100009f 	cmp	w4, #0x0
    6668:	d28fffe0 	mov	x0, #0x7fff                	// #32767
    666c:	540006cd 	b.le	6744 <__subtf3+0x54c>
    6670:	b5000408 	cbnz	x8, 66f0 <__subtf3+0x4f8>
    6674:	aa010048 	orr	x8, x2, x1
    6678:	b4ffe088 	cbz	x8, 6288 <__subtf3+0x90>
    667c:	71000484 	subs	w4, w4, #0x1
    6680:	54000101 	b.ne	66a0 <__subtf3+0x4a8>  // b.any
    6684:	eb0100e1 	subs	x1, x7, x1
    6688:	aa0103e7 	mov	x7, x1
    668c:	da020063 	sbc	x3, x3, x2
    6690:	b69fe003 	tbz	x3, #51, 6290 <__subtf3+0x98>
    6694:	9240c864 	and	x4, x3, #0x7ffffffffffff
    6698:	aa0703e8 	mov	x8, x7
    669c:	140000ab 	b	6948 <__subtf3+0x750>
    66a0:	eb00013f 	cmp	x9, x0
    66a4:	54ffe280 	b.eq	62f4 <__subtf3+0xfc>  // b.none
    66a8:	7101d09f 	cmp	w4, #0x74
    66ac:	5400044c 	b.gt	6734 <__subtf3+0x53c>
    66b0:	7100fc9f 	cmp	w4, #0x3f
    66b4:	5400026c 	b.gt	6700 <__subtf3+0x508>
    66b8:	52800808 	mov	w8, #0x40                  	// #64
    66bc:	4b040108 	sub	w8, w8, w4
    66c0:	9ac4242a 	lsr	x10, x1, x4
    66c4:	9ac82040 	lsl	x0, x2, x8
    66c8:	aa0a0000 	orr	x0, x0, x10
    66cc:	9ac82028 	lsl	x8, x1, x8
    66d0:	f100011f 	cmp	x8, #0x0
    66d4:	9a9f07e1 	cset	x1, ne  // ne = any
    66d8:	9ac42444 	lsr	x4, x2, x4
    66dc:	aa010000 	orr	x0, x0, x1
    66e0:	eb0000e0 	subs	x0, x7, x0
    66e4:	aa0003e7 	mov	x7, x0
    66e8:	da040063 	sbc	x3, x3, x4
    66ec:	17ffffe9 	b	6690 <__subtf3+0x498>
    66f0:	eb00013f 	cmp	x9, x0
    66f4:	54ffe000 	b.eq	62f4 <__subtf3+0xfc>  // b.none
    66f8:	b24d0042 	orr	x2, x2, #0x8000000000000
    66fc:	17ffffeb 	b	66a8 <__subtf3+0x4b0>
    6700:	51010080 	sub	w0, w4, #0x40
    6704:	52801008 	mov	w8, #0x80                  	// #128
    6708:	4b040108 	sub	w8, w8, w4
    670c:	7101009f 	cmp	w4, #0x40
    6710:	9ac02440 	lsr	x0, x2, x0
    6714:	9ac82042 	lsl	x2, x2, x8
    6718:	9a9f1042 	csel	x2, x2, xzr, ne  // ne = any
    671c:	aa010041 	orr	x1, x2, x1
    6720:	f100003f 	cmp	x1, #0x0
    6724:	9a9f07e1 	cset	x1, ne  // ne = any
    6728:	aa010000 	orr	x0, x0, x1
    672c:	d2800004 	mov	x4, #0x0                   	// #0
    6730:	17ffffec 	b	66e0 <__subtf3+0x4e8>
    6734:	aa010041 	orr	x1, x2, x1
    6738:	f100003f 	cmp	x1, #0x0
    673c:	9a9f07e0 	cset	x0, ne  // ne = any
    6740:	17fffffb 	b	672c <__subtf3+0x534>
    6744:	540007e0 	b.eq	6840 <__subtf3+0x648>  // b.none
    6748:	b5000509 	cbnz	x9, 67e8 <__subtf3+0x5f0>
    674c:	aa070065 	orr	x5, x3, x7
    6750:	b5000145 	cbnz	x5, 6778 <__subtf3+0x580>
    6754:	eb00011f 	cmp	x8, x0
    6758:	540016a1 	b.ne	6a2c <__subtf3+0x834>  // b.any
    675c:	aa010040 	orr	x0, x2, x1
    6760:	b40019a0 	cbz	x0, 6a94 <__subtf3+0x89c>
    6764:	d372fc40 	lsr	x0, x2, #50
    6768:	aa0a03e5 	mov	x5, x10
    676c:	d2400000 	eor	x0, x0, #0x1
    6770:	12000000 	and	w0, w0, #0x1
    6774:	17ffff1a 	b	63dc <__subtf3+0x1e4>
    6778:	2a2403e4 	mvn	w4, w4
    677c:	350000e4 	cbnz	w4, 6798 <__subtf3+0x5a0>
    6780:	eb070021 	subs	x1, x1, x7
    6784:	aa0103e7 	mov	x7, x1
    6788:	da030043 	sbc	x3, x2, x3
    678c:	aa0803e9 	mov	x9, x8
    6790:	aa0a03e5 	mov	x5, x10
    6794:	17ffffbf 	b	6690 <__subtf3+0x498>
    6798:	eb00011f 	cmp	x8, x0
    679c:	54fffe00 	b.eq	675c <__subtf3+0x564>  // b.none
    67a0:	7101d09f 	cmp	w4, #0x74
    67a4:	5400046c 	b.gt	6830 <__subtf3+0x638>
    67a8:	7100fc9f 	cmp	w4, #0x3f
    67ac:	5400028c 	b.gt	67fc <__subtf3+0x604>
    67b0:	52800805 	mov	w5, #0x40                  	// #64
    67b4:	4b0400a5 	sub	w5, w5, w4
    67b8:	9ac424e9 	lsr	x9, x7, x4
    67bc:	9ac52060 	lsl	x0, x3, x5
    67c0:	aa090000 	orr	x0, x0, x9
    67c4:	9ac520e5 	lsl	x5, x7, x5
    67c8:	f10000bf 	cmp	x5, #0x0
    67cc:	9a9f07e5 	cset	x5, ne  // ne = any
    67d0:	9ac42464 	lsr	x4, x3, x4
    67d4:	aa050000 	orr	x0, x0, x5
    67d8:	eb000020 	subs	x0, x1, x0
    67dc:	aa0003e7 	mov	x7, x0
    67e0:	da040043 	sbc	x3, x2, x4
    67e4:	17ffffea 	b	678c <__subtf3+0x594>
    67e8:	eb00011f 	cmp	x8, x0
    67ec:	54fffb80 	b.eq	675c <__subtf3+0x564>  // b.none
    67f0:	4b0403e4 	neg	w4, w4
    67f4:	b24d0063 	orr	x3, x3, #0x8000000000000
    67f8:	17ffffea 	b	67a0 <__subtf3+0x5a8>
    67fc:	51010080 	sub	w0, w4, #0x40
    6800:	52801005 	mov	w5, #0x80                  	// #128
    6804:	4b0400a5 	sub	w5, w5, w4
    6808:	7101009f 	cmp	w4, #0x40
    680c:	9ac02460 	lsr	x0, x3, x0
    6810:	9ac52063 	lsl	x3, x3, x5
    6814:	9a9f1063 	csel	x3, x3, xzr, ne  // ne = any
    6818:	aa070063 	orr	x3, x3, x7
    681c:	f100007f 	cmp	x3, #0x0
    6820:	9a9f07e3 	cset	x3, ne  // ne = any
    6824:	aa030000 	orr	x0, x0, x3
    6828:	d2800004 	mov	x4, #0x0                   	// #0
    682c:	17ffffeb 	b	67d8 <__subtf3+0x5e0>
    6830:	aa070063 	orr	x3, x3, x7
    6834:	f100007f 	cmp	x3, #0x0
    6838:	9a9f07e0 	cset	x0, ne  // ne = any
    683c:	17fffffb 	b	6828 <__subtf3+0x630>
    6840:	9100052b 	add	x11, x9, #0x1
    6844:	f27f357f 	tst	x11, #0x7ffe
    6848:	54000721 	b.ne	692c <__subtf3+0x734>  // b.any
    684c:	aa01004c 	orr	x12, x2, x1
    6850:	aa07006b 	orr	x11, x3, x7
    6854:	b50003e9 	cbnz	x9, 68d0 <__subtf3+0x6d8>
    6858:	b50001cb 	cbnz	x11, 6890 <__subtf3+0x698>
    685c:	b5000f8c 	cbnz	x12, 6a4c <__subtf3+0x854>
    6860:	926a04c0 	and	x0, x6, #0xc00000
    6864:	d2800003 	mov	x3, #0x0                   	// #0
    6868:	f160001f 	cmp	x0, #0x800, lsl #12
    686c:	d2800007 	mov	x7, #0x0                   	// #0
    6870:	9a9f17e5 	cset	x5, eq  // eq = none
    6874:	aa0300e0 	orr	x0, x7, x3
    6878:	aa0303e2 	mov	x2, x3
    687c:	f100001f 	cmp	x0, #0x0
    6880:	aa0703e1 	mov	x1, x7
    6884:	1a9f07e4 	cset	w4, ne  // ne = any
    6888:	d2800008 	mov	x8, #0x0                   	// #0
    688c:	17ffff54 	b	65dc <__subtf3+0x3e4>
    6890:	b4ffff2c 	cbz	x12, 6874 <__subtf3+0x67c>
    6894:	eb0100e4 	subs	x4, x7, x1
    6898:	da020060 	sbc	x0, x3, x2
    689c:	b69800c0 	tbz	x0, #51, 68b4 <__subtf3+0x6bc>
    68a0:	eb070021 	subs	x1, x1, x7
    68a4:	aa0103e7 	mov	x7, x1
    68a8:	da030043 	sbc	x3, x2, x3
    68ac:	aa0a03e5 	mov	x5, x10
    68b0:	17fffff1 	b	6874 <__subtf3+0x67c>
    68b4:	aa000087 	orr	x7, x4, x0
    68b8:	b5000d07 	cbnz	x7, 6a58 <__subtf3+0x860>
    68bc:	926a04c0 	and	x0, x6, #0xc00000
    68c0:	f160001f 	cmp	x0, #0x800, lsl #12
    68c4:	9a9f17e5 	cset	x5, eq  // eq = none
    68c8:	d2800003 	mov	x3, #0x0                   	// #0
    68cc:	17ffffea 	b	6874 <__subtf3+0x67c>
    68d0:	eb00013f 	cmp	x9, x0
    68d4:	540001c1 	b.ne	690c <__subtf3+0x714>  // b.any
    68d8:	b40015cb 	cbz	x11, 6b90 <__subtf3+0x998>
    68dc:	d372fc60 	lsr	x0, x3, #50
    68e0:	eb09011f 	cmp	x8, x9
    68e4:	d2400000 	eor	x0, x0, #0x1
    68e8:	12000000 	and	w0, w0, #0x1
    68ec:	540001c1 	b.ne	6924 <__subtf3+0x72c>  // b.any
    68f0:	b400164c 	cbz	x12, 6bb8 <__subtf3+0x9c0>
    68f4:	f24e005f 	tst	x2, #0x4000000000000
    68f8:	1a9f1400 	csinc	w0, w0, wzr, ne  // ne = any
    68fc:	b5ffe2eb 	cbnz	x11, 6558 <__subtf3+0x360>
    6900:	b40015ec 	cbz	x12, 6bbc <__subtf3+0x9c4>
    6904:	aa0a03e5 	mov	x5, x10
    6908:	17ffff27 	b	65a4 <__subtf3+0x3ac>
    690c:	eb00011f 	cmp	x8, x0
    6910:	54000061 	b.ne	691c <__subtf3+0x724>  // b.any
    6914:	52800000 	mov	w0, #0x0                   	// #0
    6918:	17fffff6 	b	68f0 <__subtf3+0x6f8>
    691c:	52800000 	mov	w0, #0x0                   	// #0
    6920:	b4ffff0b 	cbz	x11, 6900 <__subtf3+0x708>
    6924:	b5ffe1ac 	cbnz	x12, 6558 <__subtf3+0x360>
    6928:	17ffff23 	b	65b4 <__subtf3+0x3bc>
    692c:	eb0100e0 	subs	x0, x7, x1
    6930:	aa0003e8 	mov	x8, x0
    6934:	da020064 	sbc	x4, x3, x2
    6938:	b6980464 	tbz	x4, #51, 69c4 <__subtf3+0x7cc>
    693c:	eb070028 	subs	x8, x1, x7
    6940:	aa0a03e5 	mov	x5, x10
    6944:	da030044 	sbc	x4, x2, x3
    6948:	dac01103 	clz	x3, x8
    694c:	dac01080 	clz	x0, x4
    6950:	f100009f 	cmp	x4, #0x0
    6954:	11010063 	add	w3, w3, #0x40
    6958:	1a800063 	csel	w3, w3, w0, eq  // eq = none
    695c:	51003060 	sub	w0, w3, #0xc
    6960:	7100fc1f 	cmp	w0, #0x3f
    6964:	5400036c 	b.gt	69d0 <__subtf3+0x7d8>
    6968:	4b0003e3 	neg	w3, w0
    696c:	9ac02084 	lsl	x4, x4, x0
    6970:	9ac02107 	lsl	x7, x8, x0
    6974:	9ac32503 	lsr	x3, x8, x3
    6978:	aa040063 	orr	x3, x3, x4
    697c:	93407c01 	sxtw	x1, w0
    6980:	eb20c13f 	cmp	x9, w0, sxtw
    6984:	5400046c 	b.gt	6a10 <__subtf3+0x818>
    6988:	4b090000 	sub	w0, w0, w9
    698c:	11000401 	add	w1, w0, #0x1
    6990:	7100fc3f 	cmp	w1, #0x3f
    6994:	5400026c 	b.gt	69e0 <__subtf3+0x7e8>
    6998:	52800800 	mov	w0, #0x40                  	// #64
    699c:	4b010000 	sub	w0, w0, w1
    69a0:	9ac124e4 	lsr	x4, x7, x1
    69a4:	9ac02062 	lsl	x2, x3, x0
    69a8:	aa040042 	orr	x2, x2, x4
    69ac:	9ac020e0 	lsl	x0, x7, x0
    69b0:	f100001f 	cmp	x0, #0x0
    69b4:	9a9f07e7 	cset	x7, ne  // ne = any
    69b8:	9ac12463 	lsr	x3, x3, x1
    69bc:	aa070047 	orr	x7, x2, x7
    69c0:	17ffffad 	b	6874 <__subtf3+0x67c>
    69c4:	aa040007 	orr	x7, x0, x4
    69c8:	b5fffc07 	cbnz	x7, 6948 <__subtf3+0x750>
    69cc:	17ffffbc 	b	68bc <__subtf3+0x6c4>
    69d0:	51013063 	sub	w3, w3, #0x4c
    69d4:	d2800007 	mov	x7, #0x0                   	// #0
    69d8:	9ac32103 	lsl	x3, x8, x3
    69dc:	17ffffe8 	b	697c <__subtf3+0x784>
    69e0:	5100fc00 	sub	w0, w0, #0x3f
    69e4:	52801002 	mov	w2, #0x80                  	// #128
    69e8:	4b010042 	sub	w2, w2, w1
    69ec:	7101003f 	cmp	w1, #0x40
    69f0:	9ac02460 	lsr	x0, x3, x0
    69f4:	9ac22063 	lsl	x3, x3, x2
    69f8:	9a9f1063 	csel	x3, x3, xzr, ne  // ne = any
    69fc:	aa0300e1 	orr	x1, x7, x3
    6a00:	f100003f 	cmp	x1, #0x0
    6a04:	9a9f07e7 	cset	x7, ne  // ne = any
    6a08:	aa070007 	orr	x7, x0, x7
    6a0c:	17ffffaf 	b	68c8 <__subtf3+0x6d0>
    6a10:	cb010129 	sub	x9, x9, x1
    6a14:	924cf863 	and	x3, x3, #0xfff7ffffffffffff
    6a18:	17fffe1e 	b	6290 <__subtf3+0x98>
    6a1c:	aa0203e3 	mov	x3, x2
    6a20:	aa0103e7 	mov	x7, x1
    6a24:	aa0803e9 	mov	x9, x8
    6a28:	17fffe1a 	b	6290 <__subtf3+0x98>
    6a2c:	aa0203e3 	mov	x3, x2
    6a30:	aa0103e7 	mov	x7, x1
    6a34:	aa0803e9 	mov	x9, x8
    6a38:	aa0a03e5 	mov	x5, x10
    6a3c:	17fffe15 	b	6290 <__subtf3+0x98>
    6a40:	aa0203e3 	mov	x3, x2
    6a44:	aa0103e7 	mov	x7, x1
    6a48:	17ffff8b 	b	6874 <__subtf3+0x67c>
    6a4c:	aa0203e3 	mov	x3, x2
    6a50:	aa0103e7 	mov	x7, x1
    6a54:	17ffff96 	b	68ac <__subtf3+0x6b4>
    6a58:	aa0003e3 	mov	x3, x0
    6a5c:	aa0403e7 	mov	x7, x4
    6a60:	17ffff85 	b	6874 <__subtf3+0x67c>
    6a64:	d2800002 	mov	x2, #0x0                   	// #0
    6a68:	d2800001 	mov	x1, #0x0                   	// #0
    6a6c:	17fffe1e 	b	62e4 <__subtf3+0xec>
    6a70:	aa0b03e8 	mov	x8, x11
    6a74:	d2800002 	mov	x2, #0x0                   	// #0
    6a78:	17fffeea 	b	6620 <__subtf3+0x428>
    6a7c:	d2800002 	mov	x2, #0x0                   	// #0
    6a80:	52800280 	mov	w0, #0x14                  	// #20
    6a84:	17fffe56 	b	63dc <__subtf3+0x1e4>
    6a88:	d2800002 	mov	x2, #0x0                   	// #0
    6a8c:	aa0903e8 	mov	x8, x9
    6a90:	17fffe15 	b	62e4 <__subtf3+0xec>
    6a94:	aa0a03e5 	mov	x5, x10
    6a98:	d2800002 	mov	x2, #0x0                   	// #0
    6a9c:	d2800001 	mov	x1, #0x0                   	// #0
    6aa0:	17fffe11 	b	62e4 <__subtf3+0xec>
    6aa4:	b5ffd3c5 	cbnz	x5, 651c <__subtf3+0x324>
    6aa8:	b1002021 	adds	x1, x1, #0x8
    6aac:	17fffe9b 	b	6518 <__subtf3+0x320>
    6ab0:	b4ffd365 	cbz	x5, 651c <__subtf3+0x324>
    6ab4:	17fffffd 	b	6aa8 <__subtf3+0x8b0>
    6ab8:	34000084 	cbz	w4, 6ac8 <__subtf3+0x8d0>
    6abc:	37200040 	tbnz	w0, #4, 6ac4 <__subtf3+0x8cc>
    6ac0:	36580046 	tbz	w6, #11, 6ac8 <__subtf3+0x8d0>
    6ac4:	321d0000 	orr	w0, w0, #0x8
    6ac8:	b69800c2 	tbz	x2, #51, 6ae0 <__subtf3+0x8e8>
    6acc:	91000508 	add	x8, x8, #0x1
    6ad0:	d28fffe3 	mov	x3, #0x7fff                	// #32767
    6ad4:	eb03011f 	cmp	x8, x3
    6ad8:	54000300 	b.eq	6b38 <__subtf3+0x940>  // b.none
    6adc:	924cf842 	and	x2, x2, #0xfff7ffffffffffff
    6ae0:	d28fffe3 	mov	x3, #0x7fff                	// #32767
    6ae4:	93c10c41 	extr	x1, x2, x1, #3
    6ae8:	eb03011f 	cmp	x8, x3
    6aec:	d343fc42 	lsr	x2, x2, #3
    6af0:	540000a1 	b.ne	6b04 <__subtf3+0x90c>  // b.any
    6af4:	aa020023 	orr	x3, x1, x2
    6af8:	b2510042 	orr	x2, x2, #0x800000000000
    6afc:	f100007f 	cmp	x3, #0x0
    6b00:	9a9f1042 	csel	x2, x2, xzr, ne  // ne = any
    6b04:	92403908 	and	x8, x8, #0x7fff
    6b08:	d2800007 	mov	x7, #0x0                   	// #0
    6b0c:	b340bc47 	bfxil	x7, x2, #0, #48
    6b10:	2a053d08 	orr	w8, w8, w5, lsl #15
    6b14:	9e670020 	fmov	d0, x1
    6b18:	b3503d07 	bfi	x7, x8, #48, #16
    6b1c:	9eaf00e0 	fmov	v0.d[1], x7
    6b20:	34000080 	cbz	w0, 6b30 <__subtf3+0x938>
    6b24:	3d8007e0 	str	q0, [sp, #16]
    6b28:	94000156 	bl	7080 <__sfp_handle_exceptions>
    6b2c:	3dc007e0 	ldr	q0, [sp, #16]
    6b30:	a8c27bfd 	ldp	x29, x30, [sp], #32
    6b34:	d65f03c0 	ret
    6b38:	f26a04c1 	ands	x1, x6, #0xc00000
    6b3c:	540000e0 	b.eq	6b58 <__subtf3+0x960>  // b.none
    6b40:	f150003f 	cmp	x1, #0x400, lsl #12
    6b44:	54000121 	b.ne	6b68 <__subtf3+0x970>  // b.any
    6b48:	f10000bf 	cmp	x5, #0x0
    6b4c:	d28fffc2 	mov	x2, #0x7ffe                	// #32766
    6b50:	da9f03e1 	csetm	x1, ne  // ne = any
    6b54:	9a820108 	csel	x8, x8, x2, eq  // eq = none
    6b58:	52800282 	mov	w2, #0x14                  	// #20
    6b5c:	2a020000 	orr	w0, w0, w2
    6b60:	aa0103e2 	mov	x2, x1
    6b64:	17ffffdf 	b	6ae0 <__subtf3+0x8e8>
    6b68:	f160003f 	cmp	x1, #0x800, lsl #12
    6b6c:	540000c1 	b.ne	6b84 <__subtf3+0x98c>  // b.any
    6b70:	f10000bf 	cmp	x5, #0x0
    6b74:	d28fffc2 	mov	x2, #0x7ffe                	// #32766
    6b78:	da9f13e1 	csetm	x1, eq  // eq = none
    6b7c:	9a821108 	csel	x8, x8, x2, ne  // ne = any
    6b80:	17fffff6 	b	6b58 <__subtf3+0x960>
    6b84:	92800001 	mov	x1, #0xffffffffffffffff    	// #-1
    6b88:	d28fffc8 	mov	x8, #0x7ffe                	// #32766
    6b8c:	17fffff3 	b	6b58 <__subtf3+0x960>
    6b90:	eb09011f 	cmp	x8, x9
    6b94:	54ffec00 	b.eq	6914 <__subtf3+0x71c>  // b.none
    6b98:	52800000 	mov	w0, #0x0                   	// #0
    6b9c:	17ffff59 	b	6900 <__subtf3+0x708>
    6ba0:	b4ffd02b 	cbz	x11, 65a4 <__subtf3+0x3ac>
    6ba4:	17fffe84 	b	65b4 <__subtf3+0x3bc>
    6ba8:	eb09011f 	cmp	x8, x9
    6bac:	54ffcf40 	b.eq	6594 <__subtf3+0x39c>  // b.none
    6bb0:	52800000 	mov	w0, #0x0                   	// #0
    6bb4:	17fffe7c 	b	65a4 <__subtf3+0x3ac>
    6bb8:	b5ffcfeb 	cbnz	x11, 65b4 <__subtf3+0x3bc>
    6bbc:	d2800005 	mov	x5, #0x0                   	// #0
    6bc0:	92ffff02 	mov	x2, #0x7ffffffffffff       	// #2251799813685247
    6bc4:	928000e1 	mov	x1, #0xfffffffffffffff8    	// #-8
    6bc8:	d28fffe8 	mov	x8, #0x7fff                	// #32767
    6bcc:	52800020 	mov	w0, #0x1                   	// #1
    6bd0:	17fffe45 	b	64e4 <__subtf3+0x2ec>

0000000000006bd4 <__fixunstfdi>:
    6bd4:	a9bd7bfd 	stp	x29, x30, [sp, #-48]!
    6bd8:	910003fd 	mov	x29, sp
    6bdc:	f9000bf3 	str	x19, [sp, #16]
    6be0:	3d800be0 	str	q0, [sp, #32]
    6be4:	a94203e1 	ldp	x1, x0, [sp, #32]
    6be8:	d53b4402 	mrs	x2, fpcr
    6bec:	d370f803 	ubfx	x3, x0, #48, #15
    6bf0:	d287ffc4 	mov	x4, #0x3ffe                	// #16382
    6bf4:	d340bc13 	ubfx	x19, x0, #0, #48
    6bf8:	eb04007f 	cmp	x3, x4
    6bfc:	5400018c 	b.gt	6c2c <__fixunstfdi+0x58>
    6c00:	b5000663 	cbnz	x3, 6ccc <__fixunstfdi+0xf8>
    6c04:	aa130021 	orr	x1, x1, x19
    6c08:	d2800013 	mov	x19, #0x0                   	// #0
    6c0c:	f100003f 	cmp	x1, #0x0
    6c10:	1a9f07e0 	cset	w0, ne  // ne = any
    6c14:	531c6c00 	lsl	w0, w0, #4
    6c18:	350003e0 	cbnz	w0, 6c94 <__fixunstfdi+0xc0>
    6c1c:	aa1303e0 	mov	x0, x19
    6c20:	f9400bf3 	ldr	x19, [sp, #16]
    6c24:	a8c37bfd 	ldp	x29, x30, [sp], #48
    6c28:	d65f03c0 	ret
    6c2c:	d37ffc00 	lsr	x0, x0, #63
    6c30:	d28807e4 	mov	x4, #0x403f                	// #16447
    6c34:	12001c00 	and	w0, w0, #0xff
    6c38:	92401c00 	and	x0, x0, #0xff
    6c3c:	cb000084 	sub	x4, x4, x0
    6c40:	eb04007f 	cmp	x3, x4
    6c44:	5400024a 	b.ge	6c8c <__fixunstfdi+0xb8>  // b.tcont
    6c48:	b5000480 	cbnz	x0, 6cd8 <__fixunstfdi+0x104>
    6c4c:	d2880de4 	mov	x4, #0x406f                	// #16495
    6c50:	cb030082 	sub	x2, x4, x3
    6c54:	b2500273 	orr	x19, x19, #0x1000000000000
    6c58:	f100fc5f 	cmp	x2, #0x3f
    6c5c:	5400020c 	b.gt	6c9c <__fixunstfdi+0xc8>
    6c60:	128805c2 	mov	w2, #0xffffbfd1            	// #-16431
    6c64:	0b020062 	add	w2, w3, w2
    6c68:	4b030084 	sub	w4, w4, w3
    6c6c:	9ac22020 	lsl	x0, x1, x2
    6c70:	f100001f 	cmp	x0, #0x0
    6c74:	9ac42421 	lsr	x1, x1, x4
    6c78:	1a9f07e0 	cset	w0, ne  // ne = any
    6c7c:	9ac22273 	lsl	x19, x19, x2
    6c80:	aa130033 	orr	x19, x1, x19
    6c84:	531c6c00 	lsl	w0, w0, #4
    6c88:	17ffffe4 	b	6c18 <__fixunstfdi+0x44>
    6c8c:	d1000413 	sub	x19, x0, #0x1
    6c90:	52800020 	mov	w0, #0x1                   	// #1
    6c94:	940000fb 	bl	7080 <__sfp_handle_exceptions>
    6c98:	17ffffe1 	b	6c1c <__fixunstfdi+0x48>
    6c9c:	1287fdc0 	mov	w0, #0xffffc011            	// #-16367
    6ca0:	0b000060 	add	w0, w3, w0
    6ca4:	f101005f 	cmp	x2, #0x40
    6ca8:	9ac02260 	lsl	x0, x19, x0
    6cac:	9a9f1000 	csel	x0, x0, xzr, ne  // ne = any
    6cb0:	aa010000 	orr	x0, x0, x1
    6cb4:	528805e1 	mov	w1, #0x402f                	// #16431
    6cb8:	4b030021 	sub	w1, w1, w3
    6cbc:	f100001f 	cmp	x0, #0x0
    6cc0:	1a9f07e0 	cset	w0, ne  // ne = any
    6cc4:	9ac12673 	lsr	x19, x19, x1
    6cc8:	17ffffef 	b	6c84 <__fixunstfdi+0xb0>
    6ccc:	52800200 	mov	w0, #0x10                  	// #16
    6cd0:	d2800013 	mov	x19, #0x0                   	// #0
    6cd4:	17fffff0 	b	6c94 <__fixunstfdi+0xc0>
    6cd8:	52800020 	mov	w0, #0x1                   	// #1
    6cdc:	17fffffd 	b	6cd0 <__fixunstfdi+0xfc>

0000000000006ce0 <__extenddftf2>:
    6ce0:	d53b4400 	mrs	x0, fpcr
    6ce4:	9e660000 	fmov	x0, d0
    6ce8:	d374f803 	ubfx	x3, x0, #52, #11
    6cec:	d340cc01 	ubfx	x1, x0, #0, #52
    6cf0:	d37ffc00 	lsr	x0, x0, #63
    6cf4:	12001c02 	and	w2, w0, #0xff
    6cf8:	91000460 	add	x0, x3, #0x1
    6cfc:	f27f241f 	tst	x0, #0x7fe
    6d00:	540000e0 	b.eq	6d1c <__extenddftf2+0x3c>  // b.none
    6d04:	d2878000 	mov	x0, #0x3c00                	// #15360
    6d08:	8b000063 	add	x3, x3, x0
    6d0c:	d344fc20 	lsr	x0, x1, #4
    6d10:	d3440c21 	lsl	x1, x1, #60
    6d14:	52800004 	mov	w4, #0x0                   	// #0
    6d18:	1400001b 	b	6d84 <__extenddftf2+0xa4>
    6d1c:	b5000243 	cbnz	x3, 6d64 <__extenddftf2+0x84>
    6d20:	b4000501 	cbz	x1, 6dc0 <__extenddftf2+0xe0>
    6d24:	dac01024 	clz	x4, x1
    6d28:	7100389f 	cmp	w4, #0xe
    6d2c:	5400014c 	b.gt	6d54 <__extenddftf2+0x74>
    6d30:	1100c483 	add	w3, w4, #0x31
    6d34:	528001e0 	mov	w0, #0xf                   	// #15
    6d38:	4b040000 	sub	w0, w0, w4
    6d3c:	9ac02420 	lsr	x0, x1, x0
    6d40:	9ac32021 	lsl	x1, x1, x3
    6d44:	52878183 	mov	w3, #0x3c0c                	// #15372
    6d48:	4b040063 	sub	w3, w3, w4
    6d4c:	93407c63 	sxtw	x3, w3
    6d50:	17fffff1 	b	6d14 <__extenddftf2+0x34>
    6d54:	51003c80 	sub	w0, w4, #0xf
    6d58:	9ac02020 	lsl	x0, x1, x0
    6d5c:	d2800001 	mov	x1, #0x0                   	// #0
    6d60:	17fffff9 	b	6d44 <__extenddftf2+0x64>
    6d64:	b4000321 	cbz	x1, 6dc8 <__extenddftf2+0xe8>
    6d68:	d373fc24 	lsr	x4, x1, #51
    6d6c:	d344fc20 	lsr	x0, x1, #4
    6d70:	d2400084 	eor	x4, x4, #0x1
    6d74:	b2510000 	orr	x0, x0, #0x800000000000
    6d78:	12000084 	and	w4, w4, #0x1
    6d7c:	d3440c21 	lsl	x1, x1, #60
    6d80:	d28fffe3 	mov	x3, #0x7fff                	// #32767
    6d84:	d2800007 	mov	x7, #0x0                   	// #0
    6d88:	9e670020 	fmov	d0, x1
    6d8c:	b340bc07 	bfxil	x7, x0, #0, #48
    6d90:	2a023c60 	orr	w0, w3, w2, lsl #15
    6d94:	b3503c07 	bfi	x7, x0, #48, #16
    6d98:	9eaf00e0 	fmov	v0.d[1], x7
    6d9c:	340001c4 	cbz	w4, 6dd4 <__extenddftf2+0xf4>
    6da0:	a9be7bfd 	stp	x29, x30, [sp, #-32]!
    6da4:	52800020 	mov	w0, #0x1                   	// #1
    6da8:	910003fd 	mov	x29, sp
    6dac:	3d8007e0 	str	q0, [sp, #16]
    6db0:	940000b4 	bl	7080 <__sfp_handle_exceptions>
    6db4:	3dc007e0 	ldr	q0, [sp, #16]
    6db8:	a8c27bfd 	ldp	x29, x30, [sp], #32
    6dbc:	d65f03c0 	ret
    6dc0:	d2800000 	mov	x0, #0x0                   	// #0
    6dc4:	17ffffd4 	b	6d14 <__extenddftf2+0x34>
    6dc8:	d2800000 	mov	x0, #0x0                   	// #0
    6dcc:	d28fffe3 	mov	x3, #0x7fff                	// #32767
    6dd0:	17ffffd1 	b	6d14 <__extenddftf2+0x34>
    6dd4:	d65f03c0 	ret

0000000000006dd8 <__trunctfdf2>:
    6dd8:	a9bd7bfd 	stp	x29, x30, [sp, #-48]!
    6ddc:	910003fd 	mov	x29, sp
    6de0:	f9000bf3 	str	x19, [sp, #16]
    6de4:	3d800be0 	str	q0, [sp, #32]
    6de8:	a9420fe0 	ldp	x0, x3, [sp, #32]
    6dec:	d53b4406 	mrs	x6, fpcr
    6df0:	d370f862 	ubfx	x2, x3, #48, #15
    6df4:	d37ffc65 	lsr	x5, x3, #63
    6df8:	91000441 	add	x1, x2, #0x1
    6dfc:	d37dbc63 	ubfiz	x3, x3, #3, #48
    6e00:	aa40f463 	orr	x3, x3, x0, lsr #61
    6e04:	d37df004 	lsl	x4, x0, #3
    6e08:	f27f343f 	tst	x1, #0x7ffe
    6e0c:	540007c0 	b.eq	6f04 <__trunctfdf2+0x12c>  // b.none
    6e10:	92877fe1 	mov	x1, #0xffffffffffffc400    	// #-15360
    6e14:	8b010042 	add	x2, x2, x1
    6e18:	f11ff85f 	cmp	x2, #0x7fe
    6e1c:	5400028d 	b.le	6e6c <__trunctfdf2+0x94>
    6e20:	f26a04c1 	ands	x1, x6, #0xc00000
    6e24:	54000b60 	b.eq	6f90 <__trunctfdf2+0x1b8>  // b.none
    6e28:	f150003f 	cmp	x1, #0x400, lsl #12
    6e2c:	54000101 	b.ne	6e4c <__trunctfdf2+0x74>  // b.any
    6e30:	f10000bf 	cmp	x5, #0x0
    6e34:	d280ffe2 	mov	x2, #0x7ff                 	// #2047
    6e38:	d280ffc0 	mov	x0, #0x7fe                 	// #2046
    6e3c:	da9f03e1 	csetm	x1, ne  // ne = any
    6e40:	9a800042 	csel	x2, x2, x0, eq  // eq = none
    6e44:	52800280 	mov	w0, #0x14                  	// #20
    6e48:	1400003e 	b	6f40 <__trunctfdf2+0x168>
    6e4c:	f160003f 	cmp	x1, #0x800, lsl #12
    6e50:	54000a41 	b.ne	6f98 <__trunctfdf2+0x1c0>  // b.any
    6e54:	f10000bf 	cmp	x5, #0x0
    6e58:	d280ffe2 	mov	x2, #0x7ff                 	// #2047
    6e5c:	d280ffc0 	mov	x0, #0x7fe                 	// #2046
    6e60:	da9f13e1 	csetm	x1, eq  // eq = none
    6e64:	9a801042 	csel	x2, x2, x0, ne  // ne = any
    6e68:	17fffff7 	b	6e44 <__trunctfdf2+0x6c>
    6e6c:	f100005f 	cmp	x2, #0x0
    6e70:	540003ec 	b.gt	6eec <__trunctfdf2+0x114>
    6e74:	b100d05f 	cmn	x2, #0x34
    6e78:	5400096b 	b.lt	6fa4 <__trunctfdf2+0x1cc>  // b.tstop
    6e7c:	d28007a1 	mov	x1, #0x3d                  	// #61
    6e80:	cb020027 	sub	x7, x1, x2
    6e84:	b24d0063 	orr	x3, x3, #0x8000000000000
    6e88:	f100fcff 	cmp	x7, #0x3f
    6e8c:	5400018c 	b.gt	6ebc <__trunctfdf2+0xe4>
    6e90:	11000c40 	add	w0, w2, #0x3
    6e94:	4b020021 	sub	w1, w1, w2
    6e98:	9ac12481 	lsr	x1, x4, x1
    6e9c:	9ac02084 	lsl	x4, x4, x0
    6ea0:	f100009f 	cmp	x4, #0x0
    6ea4:	9a9f07e2 	cset	x2, ne  // ne = any
    6ea8:	9ac02063 	lsl	x3, x3, x0
    6eac:	aa020021 	orr	x1, x1, x2
    6eb0:	aa010061 	orr	x1, x3, x1
    6eb4:	d2800002 	mov	x2, #0x0                   	// #0
    6eb8:	14000011 	b	6efc <__trunctfdf2+0x124>
    6ebc:	11010c40 	add	w0, w2, #0x43
    6ec0:	12800041 	mov	w1, #0xfffffffd            	// #-3
    6ec4:	4b020021 	sub	w1, w1, w2
    6ec8:	f10100ff 	cmp	x7, #0x40
    6ecc:	9ac12461 	lsr	x1, x3, x1
    6ed0:	9ac02063 	lsl	x3, x3, x0
    6ed4:	9a9f1063 	csel	x3, x3, xzr, ne  // ne = any
    6ed8:	aa040063 	orr	x3, x3, x4
    6edc:	f100007f 	cmp	x3, #0x0
    6ee0:	9a9f07e0 	cset	x0, ne  // ne = any
    6ee4:	aa000021 	orr	x1, x1, x0
    6ee8:	17fffff3 	b	6eb4 <__trunctfdf2+0xdc>
    6eec:	eb001fff 	cmp	xzr, x0, lsl #7
    6ef0:	9a9f07e0 	cset	x0, ne  // ne = any
    6ef4:	aa44f004 	orr	x4, x0, x4, lsr #60
    6ef8:	aa031081 	orr	x1, x4, x3, lsl #4
    6efc:	52800000 	mov	w0, #0x0                   	// #0
    6f00:	14000010 	b	6f40 <__trunctfdf2+0x168>
    6f04:	aa040061 	orr	x1, x3, x4
    6f08:	b5000082 	cbnz	x2, 6f18 <__trunctfdf2+0x140>
    6f0c:	f100003f 	cmp	x1, #0x0
    6f10:	9a9f07e1 	cset	x1, ne  // ne = any
    6f14:	17fffffa 	b	6efc <__trunctfdf2+0x124>
    6f18:	b40004a1 	cbz	x1, 6fac <__trunctfdf2+0x1d4>
    6f1c:	d372fc60 	lsr	x0, x3, #50
    6f20:	93c4f063 	extr	x3, x3, x4, #60
    6f24:	d28fffe1 	mov	x1, #0x7fff                	// #32767
    6f28:	52000000 	eor	w0, w0, #0x1
    6f2c:	eb01005f 	cmp	x2, x1
    6f30:	927df063 	and	x3, x3, #0xfffffffffffffff8
    6f34:	1a9f0000 	csel	w0, w0, wzr, eq  // eq = none
    6f38:	b24a0061 	orr	x1, x3, #0x40000000000000
    6f3c:	d280ffe2 	mov	x2, #0x7ff                 	// #2047
    6f40:	f100005f 	cmp	x2, #0x0
    6f44:	1a9f17e3 	cset	w3, eq  // eq = none
    6f48:	f100003f 	cmp	x1, #0x0
    6f4c:	1a9f07e4 	cset	w4, ne  // ne = any
    6f50:	f240083f 	tst	x1, #0x7
    6f54:	0a040063 	and	w3, w3, w4
    6f58:	54000380 	b.eq	6fc8 <__trunctfdf2+0x1f0>  // b.none
    6f5c:	926a04c4 	and	x4, x6, #0xc00000
    6f60:	321c0000 	orr	w0, w0, #0x10
    6f64:	f150009f 	cmp	x4, #0x400, lsl #12
    6f68:	54000260 	b.eq	6fb4 <__trunctfdf2+0x1dc>  // b.none
    6f6c:	f160009f 	cmp	x4, #0x800, lsl #12
    6f70:	54000280 	b.eq	6fc0 <__trunctfdf2+0x1e8>  // b.none
    6f74:	b50000a4 	cbnz	x4, 6f88 <__trunctfdf2+0x1b0>
    6f78:	92400c24 	and	x4, x1, #0xf
    6f7c:	f100109f 	cmp	x4, #0x4
    6f80:	54000040 	b.eq	6f88 <__trunctfdf2+0x1b0>  // b.none
    6f84:	91001021 	add	x1, x1, #0x4
    6f88:	34000283 	cbz	w3, 6fd8 <__trunctfdf2+0x200>
    6f8c:	14000012 	b	6fd4 <__trunctfdf2+0x1fc>
    6f90:	d280ffe2 	mov	x2, #0x7ff                 	// #2047
    6f94:	17ffffac 	b	6e44 <__trunctfdf2+0x6c>
    6f98:	92800001 	mov	x1, #0xffffffffffffffff    	// #-1
    6f9c:	d280ffc2 	mov	x2, #0x7fe                 	// #2046
    6fa0:	17ffffa9 	b	6e44 <__trunctfdf2+0x6c>
    6fa4:	d2800021 	mov	x1, #0x1                   	// #1
    6fa8:	17ffffc3 	b	6eb4 <__trunctfdf2+0xdc>
    6fac:	d280ffe2 	mov	x2, #0x7ff                 	// #2047
    6fb0:	17ffffd3 	b	6efc <__trunctfdf2+0x124>
    6fb4:	b5fffea5 	cbnz	x5, 6f88 <__trunctfdf2+0x1b0>
    6fb8:	91002021 	add	x1, x1, #0x8
    6fbc:	17fffff3 	b	6f88 <__trunctfdf2+0x1b0>
    6fc0:	b4fffe45 	cbz	x5, 6f88 <__trunctfdf2+0x1b0>
    6fc4:	17fffffd 	b	6fb8 <__trunctfdf2+0x1e0>
    6fc8:	34000083 	cbz	w3, 6fd8 <__trunctfdf2+0x200>
    6fcc:	37200040 	tbnz	w0, #4, 6fd4 <__trunctfdf2+0x1fc>
    6fd0:	36580046 	tbz	w6, #11, 6fd8 <__trunctfdf2+0x200>
    6fd4:	321d0000 	orr	w0, w0, #0x8
    6fd8:	b6b800a1 	tbz	x1, #55, 6fec <__trunctfdf2+0x214>
    6fdc:	91000442 	add	x2, x2, #0x1
    6fe0:	f11ffc5f 	cmp	x2, #0x7ff
    6fe4:	54000240 	b.eq	702c <__trunctfdf2+0x254>  // b.none
    6fe8:	9248f821 	and	x1, x1, #0xff7fffffffffffff
    6fec:	d343fc21 	lsr	x1, x1, #3
    6ff0:	f11ffc5f 	cmp	x2, #0x7ff
    6ff4:	fa400824 	ccmp	x1, #0x0, #0x4, eq  // eq = none
    6ff8:	aa0103e3 	mov	x3, x1
    6ffc:	b24d0021 	orr	x1, x1, #0x8000000000000
    7000:	d34c2842 	ubfiz	x2, x2, #52, #11
    7004:	9a831021 	csel	x1, x1, x3, ne  // ne = any
    7008:	9240cc21 	and	x1, x1, #0xfffffffffffff
    700c:	aa010042 	orr	x2, x2, x1
    7010:	aa05fc53 	orr	x19, x2, x5, lsl #63
    7014:	34000040 	cbz	w0, 701c <__trunctfdf2+0x244>
    7018:	9400001a 	bl	7080 <__sfp_handle_exceptions>
    701c:	9e670260 	fmov	d0, x19
    7020:	f9400bf3 	ldr	x19, [sp, #16]
    7024:	a8c37bfd 	ldp	x29, x30, [sp], #48
    7028:	d65f03c0 	ret
    702c:	f26a04c1 	ands	x1, x6, #0xc00000
    7030:	540000e0 	b.eq	704c <__trunctfdf2+0x274>  // b.none
    7034:	f150003f 	cmp	x1, #0x400, lsl #12
    7038:	54000101 	b.ne	7058 <__trunctfdf2+0x280>  // b.any
    703c:	f10000bf 	cmp	x5, #0x0
    7040:	d280ffc3 	mov	x3, #0x7fe                 	// #2046
    7044:	da9f03e1 	csetm	x1, ne  // ne = any
    7048:	9a830042 	csel	x2, x2, x3, eq  // eq = none
    704c:	52800283 	mov	w3, #0x14                  	// #20
    7050:	2a030000 	orr	w0, w0, w3
    7054:	17ffffe6 	b	6fec <__trunctfdf2+0x214>
    7058:	f160003f 	cmp	x1, #0x800, lsl #12
    705c:	540000c1 	b.ne	7074 <__trunctfdf2+0x29c>  // b.any
    7060:	f10000bf 	cmp	x5, #0x0
    7064:	d280ffc3 	mov	x3, #0x7fe                 	// #2046
    7068:	da9f13e1 	csetm	x1, eq  // eq = none
    706c:	9a831042 	csel	x2, x2, x3, ne  // ne = any
    7070:	17fffff7 	b	704c <__trunctfdf2+0x274>
    7074:	92800001 	mov	x1, #0xffffffffffffffff    	// #-1
    7078:	d280ffc2 	mov	x2, #0x7fe                 	// #2046
    707c:	17fffff4 	b	704c <__trunctfdf2+0x274>

0000000000007080 <__sfp_handle_exceptions>:
    7080:	36000080 	tbz	w0, #0, 7090 <__sfp_handle_exceptions+0x10>
    7084:	0f000401 	movi	v1.2s, #0x0
    7088:	1e211820 	fdiv	s0, s1, s1
    708c:	d53b4421 	mrs	x1, fpsr
    7090:	360800a0 	tbz	w0, #1, 70a4 <__sfp_handle_exceptions+0x24>
    7094:	1e2e1001 	fmov	s1, #1.000000000000000000e+00
    7098:	0f000402 	movi	v2.2s, #0x0
    709c:	1e221820 	fdiv	s0, s1, s2
    70a0:	d53b4421 	mrs	x1, fpsr
    70a4:	36100100 	tbz	w0, #2, 70c4 <__sfp_handle_exceptions+0x44>
    70a8:	12b01001 	mov	w1, #0x7f7fffff            	// #2139095039
    70ac:	5298b5c2 	mov	w2, #0xc5ae                	// #50606
    70b0:	72ae93a2 	movk	w2, #0x749d, lsl #16
    70b4:	1e270021 	fmov	s1, w1
    70b8:	1e270042 	fmov	s2, w2
    70bc:	1e222820 	fadd	s0, s1, s2
    70c0:	d53b4421 	mrs	x1, fpsr
    70c4:	36180080 	tbz	w0, #3, 70d4 <__sfp_handle_exceptions+0x54>
    70c8:	0f044401 	movi	v1.2s, #0x80, lsl #16
    70cc:	1e210820 	fmul	s0, s1, s1
    70d0:	d53b4421 	mrs	x1, fpsr
    70d4:	362000c0 	tbz	w0, #4, 70ec <__sfp_handle_exceptions+0x6c>
    70d8:	12b01000 	mov	w0, #0x7f7fffff            	// #2139095039
    70dc:	1e2e1001 	fmov	s1, #1.000000000000000000e+00
    70e0:	1e270002 	fmov	s2, w0
    70e4:	1e213840 	fsub	s0, s2, s1
    70e8:	d53b4420 	mrs	x0, fpsr
    70ec:	d65f03c0 	ret

Disassembly of section .fini:

00000000000070f0 <_fini>:
    70f0:	d503201f 	nop
    70f4:	a9bf7bfd 	stp	x29, x30, [sp, #-16]!
    70f8:	910003fd 	mov	x29, sp
    70fc:	a8c17bfd 	ldp	x29, x30, [sp], #16
    7100:	d65f03c0 	ret
