
app_test_inst:     file format elf64-littleaarch64


Disassembly of section .init:

00000000000007c8 <_init>:
_init():
 7c8:	d503201f 	nop
 7cc:	a9bf7bfd 	stp	x29, x30, [sp, #-16]!
 7d0:	910003fd 	mov	x29, sp
 7d4:	94000048 	bl	8f4 <call_weak_fn>
 7d8:	a8c17bfd 	ldp	x29, x30, [sp], #16
 7dc:	d65f03c0 	ret

Disassembly of section .plt:

00000000000007e0 <.plt>:
 7e0:	a9bf7bf0 	stp	x16, x30, [sp, #-16]!
 7e4:	d0000010 	adrp	x16, 2000 <__FRAME_END__+0x11a0>
 7e8:	f947b611 	ldr	x17, [x16, #3944]
 7ec:	913da210 	add	x16, x16, #0xf68
 7f0:	d61f0220 	br	x17
 7f4:	d503201f 	nop
 7f8:	d503201f 	nop
 7fc:	d503201f 	nop

0000000000000800 <__libc_start_main@plt>:
 800:	d0000010 	adrp	x16, 2000 <__FRAME_END__+0x11a0>
 804:	f947ba11 	ldr	x17, [x16, #3952]
 808:	913dc210 	add	x16, x16, #0xf70
 80c:	d61f0220 	br	x17

0000000000000810 <perror@plt>:
 810:	d0000010 	adrp	x16, 2000 <__FRAME_END__+0x11a0>
 814:	f947be11 	ldr	x17, [x16, #3960]
 818:	913de210 	add	x16, x16, #0xf78
 81c:	d61f0220 	br	x17

0000000000000820 <__cxa_finalize@plt>:
 820:	d0000010 	adrp	x16, 2000 <__FRAME_END__+0x11a0>
 824:	f947c211 	ldr	x17, [x16, #3968]
 828:	913e0210 	add	x16, x16, #0xf80
 82c:	d61f0220 	br	x17

0000000000000830 <open@plt>:
 830:	d0000010 	adrp	x16, 2000 <__FRAME_END__+0x11a0>
 834:	f947c611 	ldr	x17, [x16, #3976]
 838:	913e2210 	add	x16, x16, #0xf88
 83c:	d61f0220 	br	x17

0000000000000840 <__stack_chk_fail@plt>:
 840:	d0000010 	adrp	x16, 2000 <__FRAME_END__+0x11a0>
 844:	f947ca11 	ldr	x17, [x16, #3984]
 848:	913e4210 	add	x16, x16, #0xf90
 84c:	d61f0220 	br	x17

0000000000000850 <close@plt>:
 850:	d0000010 	adrp	x16, 2000 <__FRAME_END__+0x11a0>
 854:	f947ce11 	ldr	x17, [x16, #3992]
 858:	913e6210 	add	x16, x16, #0xf98
 85c:	d61f0220 	br	x17

0000000000000860 <__gmon_start__@plt>:
 860:	d0000010 	adrp	x16, 2000 <__FRAME_END__+0x11a0>
 864:	f947d211 	ldr	x17, [x16, #4000]
 868:	913e8210 	add	x16, x16, #0xfa0
 86c:	d61f0220 	br	x17

0000000000000870 <abort@plt>:
 870:	d0000010 	adrp	x16, 2000 <__FRAME_END__+0x11a0>
 874:	f947d611 	ldr	x17, [x16, #4008]
 878:	913ea210 	add	x16, x16, #0xfa8
 87c:	d61f0220 	br	x17

0000000000000880 <puts@plt>:
 880:	d0000010 	adrp	x16, 2000 <__FRAME_END__+0x11a0>
 884:	f947da11 	ldr	x17, [x16, #4016]
 888:	913ec210 	add	x16, x16, #0xfb0
 88c:	d61f0220 	br	x17

0000000000000890 <pread@plt>:
 890:	d0000010 	adrp	x16, 2000 <__FRAME_END__+0x11a0>
 894:	f947de11 	ldr	x17, [x16, #4024]
 898:	913ee210 	add	x16, x16, #0xfb8
 89c:	d61f0220 	br	x17

00000000000008a0 <printf@plt>:
 8a0:	d0000010 	adrp	x16, 2000 <__FRAME_END__+0x11a0>
 8a4:	f947e211 	ldr	x17, [x16, #4032]
 8a8:	913f0210 	add	x16, x16, #0xfc0
 8ac:	d61f0220 	br	x17

Disassembly of section .text:

00000000000008c0 <_start>:
_start():
 8c0:	d503201f 	nop
 8c4:	d280001d 	mov	x29, #0x0                   	// #0
 8c8:	d280001e 	mov	x30, #0x0                   	// #0
 8cc:	aa0003e5 	mov	x5, x0
 8d0:	f94003e1 	ldr	x1, [sp]
 8d4:	910023e2 	add	x2, sp, #0x8
 8d8:	910003e6 	mov	x6, sp
 8dc:	d0000000 	adrp	x0, 2000 <__FRAME_END__+0x11a0>
 8e0:	f947f800 	ldr	x0, [x0, #4080]
 8e4:	d2800003 	mov	x3, #0x0                   	// #0
 8e8:	d2800004 	mov	x4, #0x0                   	// #0
 8ec:	97ffffc5 	bl	800 <__libc_start_main@plt>
 8f0:	97ffffe0 	bl	870 <abort@plt>

00000000000008f4 <call_weak_fn>:
call_weak_fn():
 8f4:	d0000000 	adrp	x0, 2000 <__FRAME_END__+0x11a0>
 8f8:	f947f000 	ldr	x0, [x0, #4064]
 8fc:	b4000040 	cbz	x0, 904 <call_weak_fn+0x10>
 900:	17ffffd8 	b	860 <__gmon_start__@plt>
 904:	d65f03c0 	ret

0000000000000908 <deregister_tm_clones>:
deregister_tm_clones():
 908:	f0000000 	adrp	x0, 3000 <__data_start>
 90c:	91004000 	add	x0, x0, #0x10
 910:	f0000001 	adrp	x1, 3000 <__data_start>
 914:	91004021 	add	x1, x1, #0x10
 918:	eb00003f 	cmp	x1, x0
 91c:	540000c0 	b.eq	934 <deregister_tm_clones+0x2c>  // b.none
 920:	d0000001 	adrp	x1, 2000 <__FRAME_END__+0x11a0>
 924:	f947e821 	ldr	x1, [x1, #4048]
 928:	b4000061 	cbz	x1, 934 <deregister_tm_clones+0x2c>
 92c:	aa0103f0 	mov	x16, x1
 930:	d61f0200 	br	x16
 934:	d65f03c0 	ret

0000000000000938 <register_tm_clones>:
register_tm_clones():
 938:	f0000000 	adrp	x0, 3000 <__data_start>
 93c:	91004000 	add	x0, x0, #0x10
 940:	f0000001 	adrp	x1, 3000 <__data_start>
 944:	91004021 	add	x1, x1, #0x10
 948:	cb000021 	sub	x1, x1, x0
 94c:	d2800042 	mov	x2, #0x2                   	// #2
 950:	9343fc21 	asr	x1, x1, #3
 954:	9ac20c21 	sdiv	x1, x1, x2
 958:	b40000c1 	cbz	x1, 970 <register_tm_clones+0x38>
 95c:	d0000002 	adrp	x2, 2000 <__FRAME_END__+0x11a0>
 960:	f947fc42 	ldr	x2, [x2, #4088]
 964:	b4000062 	cbz	x2, 970 <register_tm_clones+0x38>
 968:	aa0203f0 	mov	x16, x2
 96c:	d61f0200 	br	x16
 970:	d65f03c0 	ret

0000000000000974 <__do_global_dtors_aux>:
__do_global_dtors_aux():
 974:	a9be7bfd 	stp	x29, x30, [sp, #-32]!
 978:	910003fd 	mov	x29, sp
 97c:	f9000bf3 	str	x19, [sp, #16]
 980:	f0000013 	adrp	x19, 3000 <__data_start>
 984:	39404260 	ldrb	w0, [x19, #16]
 988:	35000140 	cbnz	w0, 9b0 <__do_global_dtors_aux+0x3c>
 98c:	d0000000 	adrp	x0, 2000 <__FRAME_END__+0x11a0>
 990:	f947ec00 	ldr	x0, [x0, #4056]
 994:	b4000080 	cbz	x0, 9a4 <__do_global_dtors_aux+0x30>
 998:	f0000000 	adrp	x0, 3000 <__data_start>
 99c:	f9400400 	ldr	x0, [x0, #8]
 9a0:	97ffffa0 	bl	820 <__cxa_finalize@plt>
 9a4:	97ffffd9 	bl	908 <deregister_tm_clones>
 9a8:	52800020 	mov	w0, #0x1                   	// #1
 9ac:	39004260 	strb	w0, [x19, #16]
 9b0:	f9400bf3 	ldr	x19, [sp, #16]
 9b4:	a8c27bfd 	ldp	x29, x30, [sp], #32
 9b8:	d65f03c0 	ret

00000000000009bc <frame_dummy>:
frame_dummy():
 9bc:	17ffffdf 	b	938 <register_tm_clones>

00000000000009c0 <dummyFunction>:
dummyFunction():
 9c0:	a9bb7bfd 	stp	x29, x30, [sp, #-80]!
 9c4:	910003fd 	mov	x29, sp
 9c8:	528000a0 	mov	w0, #0x5                   	// #5
 9cc:	b9001be0 	str	w0, [sp, #24]
 9d0:	52800140 	mov	w0, #0xa                   	// #10
 9d4:	b9001fe0 	str	w0, [sp, #28]
 9d8:	b9401be1 	ldr	w1, [sp, #24]
 9dc:	b9401fe0 	ldr	w0, [sp, #28]
 9e0:	0b000020 	add	w0, w1, w0
 9e4:	b90023e0 	str	w0, [sp, #32]
 9e8:	b9401be1 	ldr	w1, [sp, #24]
 9ec:	b9401fe0 	ldr	w0, [sp, #28]
 9f0:	1b007c20 	mul	w0, w1, w0
 9f4:	b90027e0 	str	w0, [sp, #36]
 9f8:	b9401fe1 	ldr	w1, [sp, #28]
 9fc:	b9401be0 	ldr	w0, [sp, #24]
 a00:	1ac00c20 	sdiv	w0, w1, w0
 a04:	b9002be0 	str	w0, [sp, #40]
 a08:	b9401fe0 	ldr	w0, [sp, #28]
 a0c:	b9401be1 	ldr	w1, [sp, #24]
 a10:	1ac10c02 	sdiv	w2, w0, w1
 a14:	b9401be1 	ldr	w1, [sp, #24]
 a18:	1b017c41 	mul	w1, w2, w1
 a1c:	4b010000 	sub	w0, w0, w1
 a20:	b9002fe0 	str	w0, [sp, #44]
 a24:	b94023e0 	ldr	w0, [sp, #32]
 a28:	4b0003e0 	neg	w0, w0
 a2c:	b90033e0 	str	w0, [sp, #48]
 a30:	b9401be1 	ldr	w1, [sp, #24]
 a34:	b9401fe0 	ldr	w0, [sp, #28]
 a38:	0a000020 	and	w0, w1, w0
 a3c:	b90037e0 	str	w0, [sp, #52]
 a40:	b9401be1 	ldr	w1, [sp, #24]
 a44:	b9401fe0 	ldr	w0, [sp, #28]
 a48:	2a000020 	orr	w0, w1, w0
 a4c:	b9003be0 	str	w0, [sp, #56]
 a50:	b9401be1 	ldr	w1, [sp, #24]
 a54:	b9401fe0 	ldr	w0, [sp, #28]
 a58:	4a000020 	eor	w0, w1, w0
 a5c:	b9003fe0 	str	w0, [sp, #60]
 a60:	b9401be0 	ldr	w0, [sp, #24]
 a64:	531e7400 	lsl	w0, w0, #2
 a68:	b90043e0 	str	w0, [sp, #64]
 a6c:	b9401fe0 	ldr	w0, [sp, #28]
 a70:	13017c00 	asr	w0, w0, #1
 a74:	b90047e0 	str	w0, [sp, #68]
 a78:	b9401be0 	ldr	w0, [sp, #24]
 a7c:	2a2003e0 	mvn	w0, w0
 a80:	b9004be0 	str	w0, [sp, #72]
 a84:	b94023e1 	ldr	w1, [sp, #32]
 a88:	b94027e0 	ldr	w0, [sp, #36]
 a8c:	0b000021 	add	w1, w1, w0
 a90:	b9402be0 	ldr	w0, [sp, #40]
 a94:	0b000021 	add	w1, w1, w0
 a98:	b9402fe0 	ldr	w0, [sp, #44]
 a9c:	0b000021 	add	w1, w1, w0
 aa0:	b94033e0 	ldr	w0, [sp, #48]
 aa4:	0b000021 	add	w1, w1, w0
 aa8:	b94037e0 	ldr	w0, [sp, #52]
 aac:	0b000021 	add	w1, w1, w0
 ab0:	b9403be0 	ldr	w0, [sp, #56]
 ab4:	0b000021 	add	w1, w1, w0
 ab8:	b9403fe0 	ldr	w0, [sp, #60]
 abc:	0b000021 	add	w1, w1, w0
 ac0:	b94043e0 	ldr	w0, [sp, #64]
 ac4:	0b000021 	add	w1, w1, w0
 ac8:	b94047e0 	ldr	w0, [sp, #68]
 acc:	0b000020 	add	w0, w1, w0
 ad0:	b9404be1 	ldr	w1, [sp, #72]
 ad4:	0b000020 	add	w0, w1, w0
 ad8:	b9004fe0 	str	w0, [sp, #76]
 adc:	b9404fe1 	ldr	w1, [sp, #76]
 ae0:	90000000 	adrp	x0, 0 <__abi_tag-0x254>
 ae4:	91322000 	add	x0, x0, #0xc88
 ae8:	97ffff6e 	bl	8a0 <printf@plt>
 aec:	d503201f 	nop
 af0:	a8c57bfd 	ldp	x29, x30, [sp], #80
 af4:	d65f03c0 	ret

0000000000000af8 <main>:
main():
 af8:	a9be7bfd 	stp	x29, x30, [sp, #-32]!
 afc:	910003fd 	mov	x29, sp
 b00:	b9001fe0 	str	w0, [sp, #28]
 b04:	f9000be1 	str	x1, [sp, #16]
 b08:	90000000 	adrp	x0, 0 <__abi_tag-0x254>
 b0c:	91326000 	add	x0, x0, #0xc98
 b10:	97ffff5c 	bl	880 <puts@plt>
 b14:	90000000 	adrp	x0, 0 <__abi_tag-0x254>
 b18:	91280000 	add	x0, x0, #0xa00
 b1c:	94000040 	bl	c1c <getPhysicalAddress>
 b20:	97ffffa8 	bl	9c0 <dummyFunction>
 b24:	52800000 	mov	w0, #0x0                   	// #0
 b28:	a8c27bfd 	ldp	x29, x30, [sp], #32
 b2c:	d65f03c0 	ret

0000000000000b30 <virtual_to_physical>:
virtual_to_physical():
 b30:	a9bc7bfd 	stp	x29, x30, [sp, #-64]!
 b34:	910003fd 	mov	x29, sp
 b38:	f9000fe0 	str	x0, [sp, #24]
 b3c:	d0000000 	adrp	x0, 2000 <__FRAME_END__+0x11a0>
 b40:	f947f400 	ldr	x0, [x0, #4072]
 b44:	f9400001 	ldr	x1, [x0]
 b48:	f9001fe1 	str	x1, [sp, #56]
 b4c:	d2800001 	mov	x1, #0x0                   	// #0
 b50:	52800001 	mov	w1, #0x0                   	// #0
 b54:	90000000 	adrp	x0, 0 <__abi_tag-0x254>
 b58:	9132a000 	add	x0, x0, #0xca8
 b5c:	97ffff35 	bl	830 <open@plt>
 b60:	b90027e0 	str	w0, [sp, #36]
 b64:	b94027e0 	ldr	w0, [sp, #36]
 b68:	3100041f 	cmn	w0, #0x1
 b6c:	540000c1 	b.ne	b84 <virtual_to_physical+0x54>  // b.any
 b70:	90000000 	adrp	x0, 0 <__abi_tag-0x254>
 b74:	91330000 	add	x0, x0, #0xcc0
 b78:	97ffff26 	bl	810 <perror@plt>
 b7c:	d2800000 	mov	x0, #0x0                   	// #0
 b80:	1400001b 	b	bec <virtual_to_physical+0xbc>
 b84:	f9400fe0 	ldr	x0, [sp, #24]
 b88:	d34cfc00 	lsr	x0, x0, #12
 b8c:	d37df000 	lsl	x0, x0, #3
 b90:	f9001be0 	str	x0, [sp, #48]
 b94:	9100a3e0 	add	x0, sp, #0x28
 b98:	f9401be3 	ldr	x3, [sp, #48]
 b9c:	d2800102 	mov	x2, #0x8                   	// #8
 ba0:	aa0003e1 	mov	x1, x0
 ba4:	b94027e0 	ldr	w0, [sp, #36]
 ba8:	97ffff3a 	bl	890 <pread@plt>
 bac:	f100201f 	cmp	x0, #0x8
 bb0:	54000100 	b.eq	bd0 <virtual_to_physical+0xa0>  // b.none
 bb4:	90000000 	adrp	x0, 0 <__abi_tag-0x254>
 bb8:	91332000 	add	x0, x0, #0xcc8
 bbc:	97ffff15 	bl	810 <perror@plt>
 bc0:	b94027e0 	ldr	w0, [sp, #36]
 bc4:	97ffff23 	bl	850 <close@plt>
 bc8:	d2800000 	mov	x0, #0x0                   	// #0
 bcc:	14000008 	b	bec <virtual_to_physical+0xbc>
 bd0:	b94027e0 	ldr	w0, [sp, #36]
 bd4:	97ffff1f 	bl	850 <close@plt>
 bd8:	f94017e0 	ldr	x0, [sp, #40]
 bdc:	d374cc01 	lsl	x1, x0, #12
 be0:	f9400fe0 	ldr	x0, [sp, #24]
 be4:	92402c00 	and	x0, x0, #0xfff
 be8:	aa000020 	orr	x0, x1, x0
 bec:	aa0003e1 	mov	x1, x0
 bf0:	d0000000 	adrp	x0, 2000 <__FRAME_END__+0x11a0>
 bf4:	f947f400 	ldr	x0, [x0, #4072]
 bf8:	f9401fe3 	ldr	x3, [sp, #56]
 bfc:	f9400002 	ldr	x2, [x0]
 c00:	eb020063 	subs	x3, x3, x2
 c04:	d2800002 	mov	x2, #0x0                   	// #0
 c08:	54000040 	b.eq	c10 <virtual_to_physical+0xe0>  // b.none
 c0c:	97ffff0d 	bl	840 <__stack_chk_fail@plt>
 c10:	aa0103e0 	mov	x0, x1
 c14:	a8c47bfd 	ldp	x29, x30, [sp], #64
 c18:	d65f03c0 	ret

0000000000000c1c <getPhysicalAddress>:
getPhysicalAddress():
 c1c:	a9bd7bfd 	stp	x29, x30, [sp, #-48]!
 c20:	910003fd 	mov	x29, sp
 c24:	f9000fe0 	str	x0, [sp, #24]
 c28:	f9400fe0 	ldr	x0, [sp, #24]
 c2c:	f90013e0 	str	x0, [sp, #32]
 c30:	f94013e1 	ldr	x1, [sp, #32]
 c34:	90000000 	adrp	x0, 0 <__abi_tag-0x254>
 c38:	91334000 	add	x0, x0, #0xcd0
 c3c:	97ffff19 	bl	8a0 <printf@plt>
 c40:	f94013e0 	ldr	x0, [sp, #32]
 c44:	97ffffbb 	bl	b30 <virtual_to_physical>
 c48:	f90017e0 	str	x0, [sp, #40]
 c4c:	f94017e1 	ldr	x1, [sp, #40]
 c50:	90000000 	adrp	x0, 0 <__abi_tag-0x254>
 c54:	9133a000 	add	x0, x0, #0xce8
 c58:	97ffff12 	bl	8a0 <printf@plt>
 c5c:	d503201f 	nop
 c60:	a8c37bfd 	ldp	x29, x30, [sp], #48
 c64:	d65f03c0 	ret

Disassembly of section .fini:

0000000000000c68 <_fini>:
_fini():
 c68:	d503201f 	nop
 c6c:	a9bf7bfd 	stp	x29, x30, [sp, #-16]!
 c70:	910003fd 	mov	x29, sp
 c74:	a8c17bfd 	ldp	x29, x30, [sp], #16
 c78:	d65f03c0 	ret
